

Microchip MPLAB XC8 Assembler V2.20 build 20200408173844 
                                                                                               Sun May 31 16:38:52 2020

Microchip MPLAB XC8 C Compiler v2.20 (Free license) build 20200408173844 Og1 
     1                           	processor	18F8722
     2                           	fnconf	rparam,??,?,0
     3                           	pagewidth 120
     4                           	opt	flic
     5                           	psect	idataCOMRAM,global,class=CODE,delta=1,noexec
     6                           	psect	nvCOMRAM,global,class=COMRAM,space=1,delta=1,lowdata,noexec
     7                           	psect	cinit,global,reloc=2,class=CODE,delta=1
     8                           	psect	bssCOMRAM,global,class=COMRAM,space=1,delta=1,lowdata,noexec
     9                           	psect	dataCOMRAM,global,class=COMRAM,space=1,delta=1,lowdata,noexec
    10                           	psect	cstackCOMRAM,global,class=COMRAM,space=1,delta=1,lowdata,noexec
    11                           	psect	text0,global,reloc=2,class=CODE,delta=1
    12                           	psect	text1,global,reloc=2,class=CODE,delta=1
    13                           	psect	text2,global,reloc=2,class=CODE,delta=1
    14                           	psect	text3,global,reloc=2,class=CODE,delta=1
    15                           	psect	text4,global,reloc=2,class=CODE,delta=1
    16                           	psect	text5,global,reloc=2,class=CODE,delta=1
    17                           	psect	text6,global,reloc=2,class=CODE,delta=1
    18                           	psect	text7,global,reloc=2,class=CODE,delta=1
    19                           	psect	text8,global,reloc=2,class=CODE,delta=1,group=1
    20                           	psect	text9,global,reloc=2,class=CODE,delta=1
    21                           	psect	text10,global,reloc=2,class=CODE,delta=1
    22                           	psect	text11,global,reloc=2,class=CODE,delta=1
    23                           	psect	text12,global,reloc=2,class=CODE,delta=1
    24                           	psect	text13,global,reloc=2,class=CODE,delta=1
    25                           	psect	text14,global,reloc=2,class=CODE,delta=1
    26                           	psect	text15,global,reloc=2,class=CODE,delta=1
    27                           	psect	text16,global,reloc=2,class=CODE,delta=1
    28                           	psect	text17,global,reloc=2,class=CODE,delta=1
    29                           	psect	intcode,global,reloc=2,class=CODE,delta=1
    30                           	psect	intcode_body,global,reloc=2,class=CODE,delta=1
    31                           	psect	intsave_regs,global,class=BIGRAM,space=1,delta=1,noexec
    32                           	psect	rparam,global,class=COMRAM,space=1,delta=1,noexec
    33                           	psect	temp,global,ovrld,common,class=COMRAM,space=1,delta=1
    34                           	psect	idloc,global,abs,ovrld,class=IDLOC,space=5,delta=1,noexec
    35                           	psect	config,global,abs,ovrld,class=CONFIG,space=4,delta=1,noexec
    36  0000                     
    37                           ; Version 2.20
    38                           ; Generated 12/02/2020 GMT
    39                           ; 
    40                           ; Copyright © 2020, Microchip Technology Inc. and its subsidiaries ("Microchip")
    41                           ; All rights reserved.
    42                           ; 
    43                           ; This software is developed by Microchip Technology Inc. and its subsidiaries ("Microch
      +                          ip").
    44                           ; 
    45                           ; Redistribution and use in source and binary forms, with or without modification, are
    46                           ; permitted provided that the following conditions are met:
    47                           ; 
    48                           ;     1. Redistributions of source code must retain the above copyright notice, this lis
      +                          t of
    49                           ;        conditions and the following disclaimer.
    50                           ; 
    51                           ;     2. Redistributions in binary form must reproduce the above copyright notice, this 
      +                          list
    52                           ;        of conditions and the following disclaimer in the documentation and/or other
    53                           ;        materials provided with the distribution.
    54                           ; 
    55                           ;     3. Microchip's name may not be used to endorse or promote products derived from th
      +                          is
    56                           ;        software without specific prior written permission.
    57                           ; 
    58                           ; THIS SOFTWARE IS PROVIDED BY MICROCHIP "AS IS" AND ANY EXPRESS OR IMPLIED WARRANTIES,
    59                           ; INCLUDING, BUT NOT LIMITED TO, THE IMPLIED WARRANTIES OF MERCHANTABILITY AND FITNESS F
      +                          OR
    60                           ; PURPOSE ARE DISCLAIMED.  IN NO EVENT SHALL MICROCHIP BE LIABLE FOR ANY DIRECT, INDIREC
      +                          T,
    61                           ; INCIDENTAL, SPECIAL, EXEMPLARY, OR CONSEQUENTIAL DAMAGES (INCLUDING BUT NOT LIMITED TO
    62                           ; PROCUREMENT OF SUBSTITUTE GOODS OR SERVICES; LOSS OF USE, DATA OR PROFITS; OR BUSINESS
    63                           ; INTERRUPTION) HOWSOEVER CAUSED AND ON ANY THEORY OF LIABILITY, WHETHER IN CONTRACT, ST
      +                          RICT
    64                           ; LIABILITY, OR TORT (INCLUDING NEGLIGENCE OR OTHERWISE) ARISING IN ANY WAY OUT OF THE U
      +                          SE OF
    65                           ; THIS SOFTWARE, EVEN IF ADVISED OF THE POSSIBILITY OF SUCH DAMAGE.
    66                           ; 
    67                           ; 
    68                           ; Code-generator required, PIC18F8722 Definitions
    69                           ; 
    70                           ; SFR Addresses
    71  0000                     
    72                           	psect	idataCOMRAM
    73  000724                     __pidataCOMRAM:
    74                           	callstack 0
    75                           
    76                           ;initializer for _special
    77  000724  04                 	db	4
    78                           
    79                           	psect	nvCOMRAM
    80  000027                     __pnvCOMRAM:
    81                           	callstack 0
    82  000027                     _timer1_counter:
    83                           	callstack 0
    84  000027                     	ds	2
    85  000029                     _timer0_counter:
    86                           	callstack 0
    87  000029                     	ds	2
    88  0000                     _TMR0	set	4054
    89  0000                     _TMR1	set	4046
    90  0000                     _ADRESL	set	4035
    91  0000                     _ADRESH	set	4036
    92  0000                     _LATJ	set	3985
    93  0000                     _TRISB	set	3987
    94  0000                     _TRISE	set	3990
    95  0000                     _TRISD	set	3989
    96  0000                     _TRISC	set	3988
    97  0000                     _TRISH	set	3993
    98  0000                     _TRISJ	set	3994
    99  0000                     _ADCON2	set	4032
   100  0000                     _ADCON1	set	4033
   101  0000                     _ADCON0	set	4034
   102  0000                     _T1CON	set	4045
   103  0000                     _T0CON	set	4053
   104  0000                     _INTCON	set	4082
   105  0000                     _PORTB	set	3969
   106  0000                     _TMR0L	set	4054
   107  0000                     _LATB4	set	31828
   108  0000                     _GODONE	set	32273
   109  0000                     _ADIE	set	31982
   110  0000                     _LATE2	set	31850
   111  0000                     _LATC2	set	31834
   112  0000                     _LATE1	set	31849
   113  0000                     _LATC1	set	31833
   114  0000                     _LATD3	set	31843
   115  0000                     _LATD2	set	31842
   116  0000                     _LATD1	set	31841
   117  0000                     _LATD0	set	31840
   118  0000                     _LATH0	set	31872
   119  0000                     _GIE	set	32663
   120  0000                     _RBIE	set	32659
   121  0000                     _ADON	set	32272
   122  0000                     _TMR1IE	set	31976
   123  0000                     _TMR0IE	set	32661
   124  0000                     _RBIF	set	32656
   125  0000                     _TMR1IF	set	31984
   126  0000                     _TMR0IF	set	32658
   127  0000                     _ADIF	set	31990
   128                           
   129                           ; #config settings
   130                           
   131                           	psect	cinit
   132  0006DE                     __pcinit:
   133                           	callstack 0
   134  0006DE                     start_initialization:
   135                           	callstack 0
   136  0006DE                     __initialization:
   137                           	callstack 0
   138                           
   139                           ; Initialize objects allocated to COMRAM (1 bytes)
   140                           ; load TBLPTR registers with __pidataCOMRAM
   141  0006DE  0E24               	movlw	low __pidataCOMRAM
   142  0006E0  6EF6               	movwf	tblptrl,c
   143  0006E2  0E07               	movlw	high __pidataCOMRAM
   144  0006E4  6EF7               	movwf	tblptrh,c
   145  0006E6  0E00               	movlw	low (__pidataCOMRAM shr (0+16))
   146  0006E8  6EF8               	movwf	tblptru,c
   147  0006EA  0009               	tblrd		*+	;fetch initializer
   148  0006EC  CFF5 F02B          	movff	tablat,__pdataCOMRAM
   149                           
   150                           ; Clear objects allocated to COMRAM (24 bytes)
   151  0006F0  EE00  F001         	lfsr	0,__pbssCOMRAM
   152  0006F4  0E18               	movlw	24
   153  0006F6                     clear_0:
   154  0006F6  6AEE               	clrf	postinc0,c
   155  0006F8  06E8               	decf	wreg,f,c
   156  0006FA  E1FD               	bnz	clear_0
   157  0006FC                     end_of_initialization:
   158                           	callstack 0
   159  0006FC                     __end_of__initialization:
   160                           	callstack 0
   161  0006FC  902C               	bcf	int$flags,0,c	;clear compiler interrupt flag (level 1)
   162  0006FE  922C               	bcf	int$flags,1,c	;clear compiler interrupt flag (level 2)
   163  000700  0100               	movlb	0
   164  000702  EF09  F000         	goto	_main	;jump to C main() function
   165                           
   166                           	psect	bssCOMRAM
   167  000001                     __pbssCOMRAM:
   168                           	callstack 0
   169  000001                     _s5_flag:
   170                           	callstack 0
   171  000001                     	ds	2
   172  000003                     _wasRb4HighLastInterrupt:
   173                           	callstack 0
   174  000003                     	ds	2
   175  000005                     _isRb4High:
   176                           	callstack 0
   177  000005                     	ds	2
   178  000007                     _mappedResult:
   179                           	callstack 0
   180  000007                     	ds	2
   181  000009                     _convertedDecimal:
   182                           	callstack 0
   183  000009                     	ds	2
   184  00000B                     _rb_stable_flag:
   185                           	callstack 0
   186  00000B                     	ds	2
   187  00000D                     _rb_flag:
   188                           	callstack 0
   189  00000D                     	ds	2
   190  00000F                     _adcon_flag:
   191                           	callstack 0
   192  00000F                     	ds	2
   193  000011                     _half_sec_flag:
   194                           	callstack 0
   195  000011                     	ds	2
   196  000013                     _end_game_flag:
   197                           	callstack 0
   198  000013                     	ds	2
   199  000015                     _timer0_flag:
   200                           	callstack 0
   201  000015                     	ds	2
   202  000017                     _adc_value:
   203                           	callstack 0
   204  000017                     	ds	2
   205                           
   206                           	psect	dataCOMRAM
   207  00002B                     __pdataCOMRAM:
   208                           	callstack 0
   209  00002B                     _special:
   210                           	callstack 0
   211  00002B                     	ds	1
   212                           
   213                           	psect	cstackCOMRAM
   214  000019                     __pcstackCOMRAM:
   215                           	callstack 0
   216  000019                     ?_mapADC:
   217                           	callstack 0
   218  000019                     ?___awdiv:
   219                           	callstack 0
   220  000019                     Update7Segment@value_to_display:
   221                           	callstack 0
   222  000019                     UpdateLeds@down_up:
   223                           	callstack 0
   224  000019                     ___awdiv@dividend:
   225                           	callstack 0
   226                           
   227                           ; 2 bytes @ 0x0
   228  000019                     	ds	2
   229  00001B                     ??_Update7Segment:
   230  00001B                     ___awdiv@divisor:
   231                           	callstack 0
   232                           
   233                           ; 2 bytes @ 0x2
   234  00001B                     	ds	2
   235  00001D                     ___awdiv@counter:
   236                           	callstack 0
   237                           
   238                           ; 1 bytes @ 0x4
   239  00001D                     	ds	1
   240  00001E                     ___awdiv@sign:
   241                           	callstack 0
   242                           
   243                           ; 1 bytes @ 0x5
   244  00001E                     	ds	1
   245  00001F                     ___awdiv@quotient:
   246                           	callstack 0
   247                           
   248                           ; 2 bytes @ 0x6
   249  00001F                     	ds	2
   250  000021                     ??_main:
   251                           
   252                           ; 1 bytes @ 0x8
   253  000021                     	ds	4
   254  000025                     main@guess:
   255                           	callstack 0
   256                           
   257                           ; 2 bytes @ 0xC
   258  000025                     	ds	2
   259                           
   260 ;;
   261 ;;Main: autosize = 0, tempsize = 4, incstack = 0, save=0
   262 ;;
   263 ;; *************** function _main *****************
   264 ;; Defined at:
   265 ;;		line 216 in file "source_headers/main.c"
   266 ;; Parameters:    Size  Location     Type
   267 ;;		None
   268 ;; Auto vars:     Size  Location     Type
   269 ;;  guess           2   12[COMRAM] int 
   270 ;; Return value:  Size  Location     Type
   271 ;;                  1    wreg      void 
   272 ;; Registers used:
   273 ;;		wreg, status,2, status,0, cstack
   274 ;; Tracked objects:
   275 ;;		On entry : 0/0
   276 ;;		On exit  : 0/0
   277 ;;		Unchanged: 0/0
   278 ;; Data sizes:     COMRAM   BANK0   BANK1   BANK2   BANK3   BANK4   BANK5   BANK6   BANK7   BANK8   BANK9  BANK10  BANK1
      +1  BANK12  BANK13  BANK14  BANK15
   279 ;;      Params:         0       0       0       0       0       0       0       0       0       0       0       0       
      +0       0       0       0       0
   280 ;;      Locals:         2       0       0       0       0       0       0       0       0       0       0       0       
      +0       0       0       0       0
   281 ;;      Temps:          4       0       0       0       0       0       0       0       0       0       0       0       
      +0       0       0       0       0
   282 ;;      Totals:         6       0       0       0       0       0       0       0       0       0       0       0       
      +0       0       0       0       0
   283 ;;Total ram usage:        6 bytes
   284 ;; Hardware stack levels required when called:    3
   285 ;; This function calls:
   286 ;;		_EndGame
   287 ;;		_Init
   288 ;;		_Restart
   289 ;;		_Update7Segment
   290 ;;		_UpdateLeds
   291 ;;		___awdiv
   292 ;;		_adc_complete
   293 ;;		_correct_guess
   294 ;;		_game_over
   295 ;;		_hs_passed
   296 ;;		_mapADC
   297 ;;		_rb4_handled
   298 ;;		_special_number
   299 ;; This function is called by:
   300 ;;		Startup code after reset
   301 ;; This function uses a non-reentrant model
   302 ;;
   303                           
   304                           	psect	text0
   305  000012                     __ptext0:
   306                           	callstack 0
   307  000012                     _main:
   308                           	callstack 28
   309  000012                     
   310                           ;source_headers/main.c: 217:     Init();
   311  000012  EC09  F003         	call	_Init	;wreg free
   312  000016                     l1394:
   313                           
   314                           ;source_headers/main.c: 220:         if (timer0_flag){
   315  000016  5015               	movf	_timer0_flag^0,w,c
   316  000018  1016               	iorwf	(_timer0_flag+1)^0,w,c
   317  00001A  B4D8               	btfsc	status,2,c
   318  00001C  EF12  F000         	goto	u561
   319  000020  EF14  F000         	goto	u560
   320  000024                     u561:
   321  000024  EF1C  F000         	goto	l1404
   322  000028                     u560:
   323  000028                     
   324                           ;source_headers/main.c: 221:             timer0_flag = 0;
   325  000028  0E00               	movlw	0
   326  00002A  6E16               	movwf	(_timer0_flag+1)^0,c
   327  00002C  0E00               	movlw	0
   328  00002E  6E15               	movwf	_timer0_flag^0,c
   329  000030                     
   330                           ;source_headers/main.c: 223:             ADIE = 1;
   331  000030  8C9D               	bsf	3997,6,c	;volatile
   332  000032                     
   333                           ;source_headers/main.c: 224:             GODONE = 1;
   334  000032  82C2               	bsf	4034,1,c	;volatile
   335  000034                     
   336                           ;source_headers/main.c: 225:             adc_complete();
   337  000034  EC8C  F003         	call	_adc_complete	;wreg free
   338  000038                     l1404:
   339                           
   340                           ;source_headers/main.c: 227:         if (half_sec_flag){
   341  000038  5011               	movf	_half_sec_flag^0,w,c
   342  00003A  1012               	iorwf	(_half_sec_flag+1)^0,w,c
   343  00003C  B4D8               	btfsc	status,2,c
   344  00003E  EF23  F000         	goto	u571
   345  000042  EF25  F000         	goto	u570
   346  000046                     u571:
   347  000046  EF2B  F000         	goto	l1410
   348  00004A                     u570:
   349  00004A                     
   350                           ;source_headers/main.c: 228:             half_sec_flag = 0;
   351  00004A  0E00               	movlw	0
   352  00004C  6E12               	movwf	(_half_sec_flag+1)^0,c
   353  00004E  0E00               	movlw	0
   354  000050  6E11               	movwf	_half_sec_flag^0,c
   355  000052                     
   356                           ;source_headers/main.c: 229:             hs_passed();
   357  000052  EC89  F003         	call	_hs_passed	;wreg free
   358  000056                     l1410:
   359                           
   360                           ;source_headers/main.c: 231:         if (end_game_flag){
   361  000056  5013               	movf	_end_game_flag^0,w,c
   362  000058  1014               	iorwf	(_end_game_flag+1)^0,w,c
   363  00005A  B4D8               	btfsc	status,2,c
   364  00005C  EF32  F000         	goto	u581
   365  000060  EF34  F000         	goto	u580
   366  000064                     u581:
   367  000064  EF3E  F000         	goto	l1420
   368  000068                     u580:
   369  000068                     
   370                           ;source_headers/main.c: 232:             end_game_flag = 0;
   371  000068  0E00               	movlw	0
   372  00006A  6E14               	movwf	(_end_game_flag+1)^0,c
   373  00006C  0E00               	movlw	0
   374  00006E  6E13               	movwf	_end_game_flag^0,c
   375  000070                     
   376                           ;source_headers/main.c: 234:             EndGame();
   377  000070  EC91  F003         	call	_EndGame	;wreg free
   378  000074                     
   379                           ;source_headers/main.c: 235:             Restart();
   380  000074  EC83  F003         	call	_Restart	;wreg free
   381  000078                     
   382                           ;source_headers/main.c: 236:             game_over();
   383  000078  EC8A  F003         	call	_game_over	;wreg free
   384  00007C                     l1420:
   385                           
   386                           ;source_headers/main.c: 238:         if (adcon_flag){
   387  00007C  500F               	movf	_adcon_flag^0,w,c
   388  00007E  1010               	iorwf	(_adcon_flag+1)^0,w,c
   389  000080  B4D8               	btfsc	status,2,c
   390  000082  EF45  F000         	goto	u591
   391  000086  EF47  F000         	goto	u590
   392  00008A                     u591:
   393  00008A  EF7C  F000         	goto	l1430
   394  00008E                     u590:
   395  00008E                     
   396                           ;source_headers/main.c: 239:             adcon_flag = 0;
   397  00008E  0E00               	movlw	0
   398  000090  6E10               	movwf	(_adcon_flag+1)^0,c
   399  000092  0E00               	movlw	0
   400  000094  6E0F               	movwf	_adcon_flag^0,c
   401  000096                     
   402                           ;source_headers/main.c: 241:             convertedDecimal = ((ADRESH & 2) / 2) * 512 + (
      +                          ADRESH & 1) * 256 + ADRESL;
   403  000096  CFC4 F021          	movff	4036,??_main	;volatile
   404  00009A  0E01               	movlw	1
   405  00009C  1621               	andwf	??_main^0,f,c
   406  00009E  5021               	movf	??_main^0,w,c
   407  0000A0  6E23               	movwf	(??_main+2)^0,c
   408  0000A2  6A22               	clrf	(??_main+1)^0,c
   409  0000A4  CFC4 F024          	movff	4036,??_main+3	;volatile
   410  0000A8  0E02               	movlw	2
   411  0000AA  1624               	andwf	(??_main+3)^0,f,c
   412  0000AC  5024               	movf	(??_main+3)^0,w,c
   413  0000AE  6E19               	movwf	___awdiv@dividend^0,c
   414  0000B0  6A1A               	clrf	(___awdiv@dividend+1)^0,c
   415  0000B2  0E00               	movlw	0
   416  0000B4  6E1C               	movwf	(___awdiv@divisor+1)^0,c
   417  0000B6  0E02               	movlw	2
   418  0000B8  6E1B               	movwf	___awdiv@divisor^0,c
   419  0000BA  EC49  F002         	call	___awdiv	;wreg free
   420  0000BE  0E09               	movlw	9
   421  0000C0                     u605:
   422  0000C0  90D8               	bcf	status,0,c
   423  0000C2  3619               	rlcf	?___awdiv^0,f,c
   424  0000C4  361A               	rlcf	(?___awdiv+1)^0,f,c
   425  0000C6  2EE8               	decfsz	wreg,f,c
   426  0000C8  EF60  F000         	goto	u605
   427  0000CC  5022               	movf	(??_main+1)^0,w,c
   428  0000CE  2619               	addwf	?___awdiv^0,f,c
   429  0000D0  5023               	movf	(??_main+2)^0,w,c
   430  0000D2  221A               	addwfc	(?___awdiv+1)^0,f,c
   431  0000D4  50C3               	movf	195,w,c	;volatile
   432  0000D6  2419               	addwf	?___awdiv^0,w,c
   433  0000D8  6E09               	movwf	_convertedDecimal^0,c
   434  0000DA  0E00               	movlw	0
   435  0000DC  201A               	addwfc	(?___awdiv+1)^0,w,c
   436  0000DE  6E0A               	movwf	(_convertedDecimal+1)^0,c
   437  0000E0                     
   438                           ;source_headers/main.c: 242:             mappedResult = mapADC();
   439  0000E0  EC1E  F001         	call	_mapADC	;wreg free
   440  0000E4  C019  F007         	movff	?_mapADC,_mappedResult
   441  0000E8  C01A  F008         	movff	?_mapADC+1,_mappedResult+1
   442  0000EC                     
   443                           ;source_headers/main.c: 243:             Update7Segment(mappedResult);
   444  0000EC  C007  F019         	movff	_mappedResult,Update7Segment@value_to_display
   445  0000F0  C008  F01A         	movff	_mappedResult+1,Update7Segment@value_to_display+1
   446  0000F4  ECE4  F001         	call	_Update7Segment	;wreg free
   447  0000F8                     l1430:
   448                           
   449                           ;source_headers/main.c: 245:         if (s5_flag){
   450  0000F8  5001               	movf	_s5_flag^0,w,c
   451  0000FA  1002               	iorwf	(_s5_flag+1)^0,w,c
   452  0000FC  B4D8               	btfsc	status,2,c
   453  0000FE  EF83  F000         	goto	u611
   454  000102  EF85  F000         	goto	u610
   455  000106                     u611:
   456  000106  EFAD  F000         	goto	l1442
   457  00010A                     u610:
   458  00010A                     
   459                           ;source_headers/main.c: 246:             s5_flag = 0;
   460  00010A  0E00               	movlw	0
   461  00010C  6E02               	movwf	(_s5_flag+1)^0,c
   462  00010E  0E00               	movlw	0
   463  000110  6E01               	movwf	_s5_flag^0,c
   464  000112                     
   465                           ;source_headers/main.c: 247:             if(isRb4High) {
   466  000112  5005               	movf	_isRb4High^0,w,c
   467  000114  1006               	iorwf	(_isRb4High+1)^0,w,c
   468  000116  B4D8               	btfsc	status,2,c
   469  000118  EF90  F000         	goto	u621
   470  00011C  EF92  F000         	goto	u620
   471  000120                     u621:
   472  000120  EFAD  F000         	goto	l1442
   473  000124                     u620:
   474  000124                     
   475                           ;source_headers/main.c: 248:                 if(wasRb4HighLastInterrupt){
   476  000124  5003               	movf	_wasRb4HighLastInterrupt^0,w,c
   477  000126  1004               	iorwf	(_wasRb4HighLastInterrupt+1)^0,w,c
   478  000128  B4D8               	btfsc	status,2,c
   479  00012A  EF99  F000         	goto	u631
   480  00012E  EF9B  F000         	goto	u630
   481  000132                     u631:
   482  000132  EFA9  F000         	goto	l1440
   483  000136                     u630:
   484  000136                     
   485                           ;source_headers/main.c: 250:                     rb_stable_flag = 1;
   486  000136  0E00               	movlw	0
   487  000138  6E0C               	movwf	(_rb_stable_flag+1)^0,c
   488  00013A  0E01               	movlw	1
   489  00013C  6E0B               	movwf	_rb_stable_flag^0,c
   490                           
   491                           ;source_headers/main.c: 251:                     wasRb4HighLastInterrupt = 0;
   492  00013E  0E00               	movlw	0
   493  000140  6E04               	movwf	(_wasRb4HighLastInterrupt+1)^0,c
   494  000142  0E00               	movlw	0
   495  000144  6E03               	movwf	_wasRb4HighLastInterrupt^0,c
   496                           
   497                           ;source_headers/main.c: 252:                     isRb4High = 0;
   498  000146  0E00               	movlw	0
   499  000148  6E06               	movwf	(_isRb4High+1)^0,c
   500  00014A  0E00               	movlw	0
   501  00014C  6E05               	movwf	_isRb4High^0,c
   502                           
   503                           ;source_headers/main.c: 253:                 }
   504  00014E  EFAD  F000         	goto	l1442
   505  000152                     l1440:
   506                           
   507                           ;source_headers/main.c: 256:                     wasRb4HighLastInterrupt = 1;
   508  000152  0E00               	movlw	0
   509  000154  6E04               	movwf	(_wasRb4HighLastInterrupt+1)^0,c
   510  000156  0E01               	movlw	1
   511  000158  6E03               	movwf	_wasRb4HighLastInterrupt^0,c
   512  00015A                     l1442:
   513                           
   514                           ;source_headers/main.c: 260:         if (rb_flag){
   515  00015A  500D               	movf	_rb_flag^0,w,c
   516  00015C  100E               	iorwf	(_rb_flag+1)^0,w,c
   517  00015E  B4D8               	btfsc	status,2,c
   518  000160  EFB4  F000         	goto	u641
   519  000164  EFB6  F000         	goto	u640
   520  000168                     u641:
   521  000168  EFD3  F000         	goto	l1452
   522  00016C                     u640:
   523  00016C                     
   524                           ;source_headers/main.c: 261:             rb_flag = 0;
   525  00016C  0E00               	movlw	0
   526  00016E  6E0E               	movwf	(_rb_flag+1)^0,c
   527  000170  0E00               	movlw	0
   528  000172  6E0D               	movwf	_rb_flag^0,c
   529  000174                     
   530                           ;source_headers/main.c: 262:             if(LATB4 == 0)
   531  000174  B88A               	btfsc	3978,4,c	;volatile
   532  000176  EFBF  F000         	goto	u651
   533  00017A  EFC1  F000         	goto	u650
   534  00017E                     u651:
   535  00017E  EFCF  F000         	goto	l1450
   536  000182                     u650:
   537  000182                     
   538                           ;source_headers/main.c: 263:             {;source_headers/main.c: 265:                 r
      +                          b_stable_flag = 0;
   539  000182  0E00               	movlw	0
   540  000184  6E0C               	movwf	(_rb_stable_flag+1)^0,c
   541  000186  0E00               	movlw	0
   542  000188  6E0B               	movwf	_rb_stable_flag^0,c
   543                           
   544                           ;source_headers/main.c: 266:                 isRb4High = 0;
   545  00018A  0E00               	movlw	0
   546  00018C  6E06               	movwf	(_isRb4High+1)^0,c
   547  00018E  0E00               	movlw	0
   548  000190  6E05               	movwf	_isRb4High^0,c
   549                           
   550                           ;source_headers/main.c: 267:                 wasRb4HighLastInterrupt = 0;
   551  000192  0E00               	movlw	0
   552  000194  6E04               	movwf	(_wasRb4HighLastInterrupt+1)^0,c
   553  000196  0E00               	movlw	0
   554  000198  6E03               	movwf	_wasRb4HighLastInterrupt^0,c
   555                           
   556                           ;source_headers/main.c: 268:             }
   557  00019A  EFD3  F000         	goto	l1452
   558  00019E                     l1450:
   559                           
   560                           ;source_headers/main.c: 270:             {;source_headers/main.c: 271:                 i
      +                          sRb4High = 1;
   561  00019E  0E00               	movlw	0
   562  0001A0  6E06               	movwf	(_isRb4High+1)^0,c
   563  0001A2  0E01               	movlw	1
   564  0001A4  6E05               	movwf	_isRb4High^0,c
   565  0001A6                     l1452:
   566                           
   567                           ;source_headers/main.c: 274:         if (rb_stable_flag){
   568  0001A6  500B               	movf	_rb_stable_flag^0,w,c
   569  0001A8  100C               	iorwf	(_rb_stable_flag+1)^0,w,c
   570  0001AA  B4D8               	btfsc	status,2,c
   571  0001AC  EFDA  F000         	goto	u661
   572  0001B0  EFDC  F000         	goto	u660
   573  0001B4                     u661:
   574  0001B4  EF0B  F000         	goto	l1394
   575  0001B8                     u660:
   576  0001B8                     
   577                           ;source_headers/main.c: 275:             rb_stable_flag = 0;
   578  0001B8  0E00               	movlw	0
   579  0001BA  6E0C               	movwf	(_rb_stable_flag+1)^0,c
   580  0001BC  0E00               	movlw	0
   581  0001BE  6E0B               	movwf	_rb_stable_flag^0,c
   582  0001C0                     
   583                           ;source_headers/main.c: 276:             rb4_handled();
   584  0001C0  EC88  F003         	call	_rb4_handled	;wreg free
   585  0001C4                     
   586                           ;source_headers/main.c: 279:             int guess;;source_headers/main.c: 280:         
      +                              if (guess < special_number())
   587  0001C4  EC86  F003         	call	_special_number	;wreg free
   588  0001C8  6E21               	movwf	??_main^0,c
   589  0001CA  6A22               	clrf	(??_main+1)^0,c
   590  0001CC  5021               	movf	??_main^0,w,c
   591  0001CE  5C25               	subwf	main@guess^0,w,c
   592  0001D0  5026               	movf	(main@guess+1)^0,w,c
   593  0001D2  0A80               	xorlw	128
   594  0001D4  6E23               	movwf	(??_main+2)^0,c
   595  0001D6  5022               	movf	(??_main+1)^0,w,c
   596  0001D8  0A80               	xorlw	128
   597  0001DA  5823               	subwfb	(??_main+2)^0,w,c
   598  0001DC  B0D8               	btfsc	status,0,c
   599  0001DE  EFF3  F000         	goto	u671
   600  0001E2  EFF5  F000         	goto	u670
   601  0001E6                     u671:
   602  0001E6  EFFD  F000         	goto	l1462
   603  0001EA                     u670:
   604  0001EA                     
   605                           ;source_headers/main.c: 281:                 UpdateLeds (0);
   606  0001EA  0E00               	movlw	0
   607  0001EC  6E1A               	movwf	(UpdateLeds@down_up+1)^0,c
   608  0001EE  0E00               	movlw	0
   609  0001F0  6E19               	movwf	UpdateLeds@down_up^0,c
   610  0001F2  EC3E  F003         	call	_UpdateLeds	;wreg free
   611  0001F6  EF0B  F000         	goto	l1394
   612  0001FA                     l1462:
   613  0001FA  EC86  F003         	call	_special_number	;wreg free
   614  0001FE  6E21               	movwf	??_main^0,c
   615  000200  6A22               	clrf	(??_main+1)^0,c
   616  000202  5025               	movf	main@guess^0,w,c
   617  000204  5C21               	subwf	??_main^0,w,c
   618  000206  5022               	movf	(??_main+1)^0,w,c
   619  000208  0A80               	xorlw	128
   620  00020A  6E23               	movwf	(??_main+2)^0,c
   621  00020C  5026               	movf	(main@guess+1)^0,w,c
   622  00020E  0A80               	xorlw	128
   623  000210  5823               	subwfb	(??_main+2)^0,w,c
   624  000212  B0D8               	btfsc	status,0,c
   625  000214  EF0E  F001         	goto	u681
   626  000218  EF10  F001         	goto	u680
   627  00021C                     u681:
   628  00021C  EF18  F001         	goto	l1466
   629  000220                     u680:
   630  000220                     
   631                           ;source_headers/main.c: 283:                 UpdateLeds (1);
   632  000220  0E00               	movlw	0
   633  000222  6E1A               	movwf	(UpdateLeds@down_up+1)^0,c
   634  000224  0E01               	movlw	1
   635  000226  6E19               	movwf	UpdateLeds@down_up^0,c
   636  000228  EC3E  F003         	call	_UpdateLeds	;wreg free
   637  00022C  EF0B  F000         	goto	l1394
   638  000230                     l1466:
   639                           
   640                           ;source_headers/main.c: 285:             {;source_headers/main.c: 286:                 c
      +                          orrect_guess();
   641  000230  EC8B  F003         	call	_correct_guess	;wreg free
   642                           
   643                           ;source_headers/main.c: 287:                 continue;
   644  000234  EF0B  F000         	goto	l1394
   645  000238  EF07  F000         	goto	start
   646  00023C                     __end_of_main:
   647                           	callstack 0
   648                           
   649 ;; *************** function _special_number *****************
   650 ;; Defined at:
   651 ;;		line 14 in file "source_headers/breakpoints.c"
   652 ;; Parameters:    Size  Location     Type
   653 ;;		None
   654 ;; Auto vars:     Size  Location     Type
   655 ;;		None
   656 ;; Return value:  Size  Location     Type
   657 ;;                  1    wreg      unsigned char 
   658 ;; Registers used:
   659 ;;		wreg, status,2
   660 ;; Tracked objects:
   661 ;;		On entry : 0/0
   662 ;;		On exit  : 0/0
   663 ;;		Unchanged: 0/0
   664 ;; Data sizes:     COMRAM   BANK0   BANK1   BANK2   BANK3   BANK4   BANK5   BANK6   BANK7   BANK8   BANK9  BANK10  BANK1
      +1  BANK12  BANK13  BANK14  BANK15
   665 ;;      Params:         0       0       0       0       0       0       0       0       0       0       0       0       
      +0       0       0       0       0
   666 ;;      Locals:         0       0       0       0       0       0       0       0       0       0       0       0       
      +0       0       0       0       0
   667 ;;      Temps:          0       0       0       0       0       0       0       0       0       0       0       0       
      +0       0       0       0       0
   668 ;;      Totals:         0       0       0       0       0       0       0       0       0       0       0       0       
      +0       0       0       0       0
   669 ;;Total ram usage:        0 bytes
   670 ;; Hardware stack levels used:    1
   671 ;; Hardware stack levels required when called:    1
   672 ;; This function calls:
   673 ;;		Nothing
   674 ;; This function is called by:
   675 ;;		_main
   676 ;; This function uses a non-reentrant model
   677 ;;
   678                           
   679                           	psect	text1
   680  00070C                     __ptext1:
   681                           	callstack 0
   682  00070C                     _special_number:
   683                           	callstack 29
   684  00070C  502B               	movf	_special^0,w,c	;volatile
   685  00070E  0012               	return		;funcret
   686  000710                     __end_of_special_number:
   687                           	callstack 0
   688                           
   689 ;; *************** function _rb4_handled *****************
   690 ;; Defined at:
   691 ;;		line 7 in file "source_headers/breakpoints.c"
   692 ;; Parameters:    Size  Location     Type
   693 ;;		None
   694 ;; Auto vars:     Size  Location     Type
   695 ;;		None
   696 ;; Return value:  Size  Location     Type
   697 ;;                  1    wreg      void 
   698 ;; Registers used:
   699 ;;		None
   700 ;; Tracked objects:
   701 ;;		On entry : 0/0
   702 ;;		On exit  : 0/0
   703 ;;		Unchanged: 0/0
   704 ;; Data sizes:     COMRAM   BANK0   BANK1   BANK2   BANK3   BANK4   BANK5   BANK6   BANK7   BANK8   BANK9  BANK10  BANK1
      +1  BANK12  BANK13  BANK14  BANK15
   705 ;;      Params:         0       0       0       0       0       0       0       0       0       0       0       0       
      +0       0       0       0       0
   706 ;;      Locals:         0       0       0       0       0       0       0       0       0       0       0       0       
      +0       0       0       0       0
   707 ;;      Temps:          0       0       0       0       0       0       0       0       0       0       0       0       
      +0       0       0       0       0
   708 ;;      Totals:         0       0       0       0       0       0       0       0       0       0       0       0       
      +0       0       0       0       0
   709 ;;Total ram usage:        0 bytes
   710 ;; Hardware stack levels used:    1
   711 ;; Hardware stack levels required when called:    1
   712 ;; This function calls:
   713 ;;		Nothing
   714 ;; This function is called by:
   715 ;;		_main
   716 ;; This function uses a non-reentrant model
   717 ;;
   718                           
   719                           	psect	text2
   720  000710                     __ptext2:
   721                           	callstack 0
   722  000710                     _rb4_handled:
   723                           	callstack 29
   724  000710  0012               	return		;funcret
   725  000712                     __end_of_rb4_handled:
   726                           	callstack 0
   727                           
   728 ;; *************** function _mapADC *****************
   729 ;; Defined at:
   730 ;;		line 21 in file "source_headers/main.c"
   731 ;; Parameters:    Size  Location     Type
   732 ;;		None
   733 ;; Auto vars:     Size  Location     Type
   734 ;;		None
   735 ;; Return value:  Size  Location     Type
   736 ;;                  2    0[COMRAM] int 
   737 ;; Registers used:
   738 ;;		wreg, status,2, status,0
   739 ;; Tracked objects:
   740 ;;		On entry : 0/0
   741 ;;		On exit  : 0/0
   742 ;;		Unchanged: 0/0
   743 ;; Data sizes:     COMRAM   BANK0   BANK1   BANK2   BANK3   BANK4   BANK5   BANK6   BANK7   BANK8   BANK9  BANK10  BANK1
      +1  BANK12  BANK13  BANK14  BANK15
   744 ;;      Params:         2       0       0       0       0       0       0       0       0       0       0       0       
      +0       0       0       0       0
   745 ;;      Locals:         0       0       0       0       0       0       0       0       0       0       0       0       
      +0       0       0       0       0
   746 ;;      Temps:          0       0       0       0       0       0       0       0       0       0       0       0       
      +0       0       0       0       0
   747 ;;      Totals:         2       0       0       0       0       0       0       0       0       0       0       0       
      +0       0       0       0       0
   748 ;;Total ram usage:        2 bytes
   749 ;; Hardware stack levels used:    1
   750 ;; Hardware stack levels required when called:    1
   751 ;; This function calls:
   752 ;;		Nothing
   753 ;; This function is called by:
   754 ;;		_main
   755 ;; This function uses a non-reentrant model
   756 ;;
   757                           
   758                           	psect	text3
   759  00023C                     __ptext3:
   760                           	callstack 0
   761  00023C                     _mapADC:
   762                           	callstack 29
   763  00023C                     
   764                           ;source_headers/main.c: 23:     if (convertedDecimal <= 102)
   765  00023C  BE0A               	btfsc	(_convertedDecimal+1)^0,7,c
   766  00023E  EF2C  F001         	goto	u380
   767  000242  500A               	movf	(_convertedDecimal+1)^0,w,c
   768  000244  E107               	bnz	u381
   769  000246  0E67               	movlw	103
   770  000248  5C09               	subwf	_convertedDecimal^0,w,c
   771  00024A  B0D8               	btfsc	status,0,c
   772  00024C  EF2A  F001         	goto	u381
   773  000250  EF2C  F001         	goto	u380
   774  000254                     u381:
   775  000254  EF32  F001         	goto	l1236
   776  000258                     u380:
   777  000258                     
   778                           ;source_headers/main.c: 24:         return 0;
   779  000258  0E00               	movlw	0
   780  00025A  6E1A               	movwf	(?_mapADC+1)^0,c
   781  00025C  0E00               	movlw	0
   782  00025E  6E19               	movwf	?_mapADC^0,c
   783  000260  EFE3  F001         	goto	l166
   784  000264                     l1236:
   785  000264  BE0A               	btfsc	(_convertedDecimal+1)^0,7,c
   786  000266  EF40  F001         	goto	u390
   787  00026A  500A               	movf	(_convertedDecimal+1)^0,w,c
   788  00026C  E107               	bnz	u391
   789  00026E  0ECD               	movlw	205
   790  000270  5C09               	subwf	_convertedDecimal^0,w,c
   791  000272  B0D8               	btfsc	status,0,c
   792  000274  EF3E  F001         	goto	u391
   793  000278  EF40  F001         	goto	u390
   794  00027C                     u391:
   795  00027C  EF46  F001         	goto	l1244
   796  000280                     u390:
   797  000280                     
   798                           ;source_headers/main.c: 26:         return 1;
   799  000280  0E00               	movlw	0
   800  000282  6E1A               	movwf	(?_mapADC+1)^0,c
   801  000284  0E01               	movlw	1
   802  000286  6E19               	movwf	?_mapADC^0,c
   803  000288  EFE3  F001         	goto	l166
   804  00028C                     l1244:
   805  00028C  BE0A               	btfsc	(_convertedDecimal+1)^0,7,c
   806  00028E  EF54  F001         	goto	u400
   807  000292  0E33               	movlw	51
   808  000294  5C09               	subwf	_convertedDecimal^0,w,c
   809  000296  0E01               	movlw	1
   810  000298  580A               	subwfb	(_convertedDecimal+1)^0,w,c
   811  00029A  B0D8               	btfsc	status,0,c
   812  00029C  EF52  F001         	goto	u401
   813  0002A0  EF54  F001         	goto	u400
   814  0002A4                     u401:
   815  0002A4  EF5A  F001         	goto	l1252
   816  0002A8                     u400:
   817  0002A8                     
   818                           ;source_headers/main.c: 28:         return 2;
   819  0002A8  0E00               	movlw	0
   820  0002AA  6E1A               	movwf	(?_mapADC+1)^0,c
   821  0002AC  0E02               	movlw	2
   822  0002AE  6E19               	movwf	?_mapADC^0,c
   823  0002B0  EFE3  F001         	goto	l166
   824  0002B4                     l1252:
   825  0002B4  BE0A               	btfsc	(_convertedDecimal+1)^0,7,c
   826  0002B6  EF68  F001         	goto	u410
   827  0002BA  0E99               	movlw	153
   828  0002BC  5C09               	subwf	_convertedDecimal^0,w,c
   829  0002BE  0E01               	movlw	1
   830  0002C0  580A               	subwfb	(_convertedDecimal+1)^0,w,c
   831  0002C2  B0D8               	btfsc	status,0,c
   832  0002C4  EF66  F001         	goto	u411
   833  0002C8  EF68  F001         	goto	u410
   834  0002CC                     u411:
   835  0002CC  EF6E  F001         	goto	l1260
   836  0002D0                     u410:
   837  0002D0                     
   838                           ;source_headers/main.c: 30:         return 3;
   839  0002D0  0E00               	movlw	0
   840  0002D2  6E1A               	movwf	(?_mapADC+1)^0,c
   841  0002D4  0E03               	movlw	3
   842  0002D6  6E19               	movwf	?_mapADC^0,c
   843  0002D8  EFE3  F001         	goto	l166
   844  0002DC                     l1260:
   845  0002DC  BE0A               	btfsc	(_convertedDecimal+1)^0,7,c
   846  0002DE  EF7B  F001         	goto	u420
   847  0002E2  2809               	incf	_convertedDecimal^0,w,c
   848  0002E4  0E01               	movlw	1
   849  0002E6  580A               	subwfb	(_convertedDecimal+1)^0,w,c
   850  0002E8  B0D8               	btfsc	status,0,c
   851  0002EA  EF79  F001         	goto	u421
   852  0002EE  EF7B  F001         	goto	u420
   853  0002F2                     u421:
   854  0002F2  EF81  F001         	goto	l1268
   855  0002F6                     u420:
   856  0002F6                     
   857                           ;source_headers/main.c: 32:         return 4;
   858  0002F6  0E00               	movlw	0
   859  0002F8  6E1A               	movwf	(?_mapADC+1)^0,c
   860  0002FA  0E04               	movlw	4
   861  0002FC  6E19               	movwf	?_mapADC^0,c
   862  0002FE  EFE3  F001         	goto	l166
   863  000302                     l1268:
   864  000302  BE0A               	btfsc	(_convertedDecimal+1)^0,7,c
   865  000304  EF8F  F001         	goto	u430
   866  000308  0E65               	movlw	101
   867  00030A  5C09               	subwf	_convertedDecimal^0,w,c
   868  00030C  0E02               	movlw	2
   869  00030E  580A               	subwfb	(_convertedDecimal+1)^0,w,c
   870  000310  B0D8               	btfsc	status,0,c
   871  000312  EF8D  F001         	goto	u431
   872  000316  EF8F  F001         	goto	u430
   873  00031A                     u431:
   874  00031A  EF95  F001         	goto	l1276
   875  00031E                     u430:
   876  00031E                     
   877                           ;source_headers/main.c: 34:         return 5;
   878  00031E  0E00               	movlw	0
   879  000320  6E1A               	movwf	(?_mapADC+1)^0,c
   880  000322  0E05               	movlw	5
   881  000324  6E19               	movwf	?_mapADC^0,c
   882  000326  EFE3  F001         	goto	l166
   883  00032A                     l1276:
   884  00032A  BE0A               	btfsc	(_convertedDecimal+1)^0,7,c
   885  00032C  EFA3  F001         	goto	u440
   886  000330  0ECB               	movlw	203
   887  000332  5C09               	subwf	_convertedDecimal^0,w,c
   888  000334  0E02               	movlw	2
   889  000336  580A               	subwfb	(_convertedDecimal+1)^0,w,c
   890  000338  B0D8               	btfsc	status,0,c
   891  00033A  EFA1  F001         	goto	u441
   892  00033E  EFA3  F001         	goto	u440
   893  000342                     u441:
   894  000342  EFA9  F001         	goto	l1284
   895  000346                     u440:
   896  000346                     
   897                           ;source_headers/main.c: 36:         return 6;
   898  000346  0E00               	movlw	0
   899  000348  6E1A               	movwf	(?_mapADC+1)^0,c
   900  00034A  0E06               	movlw	6
   901  00034C  6E19               	movwf	?_mapADC^0,c
   902  00034E  EFE3  F001         	goto	l166
   903  000352                     l1284:
   904  000352  BE0A               	btfsc	(_convertedDecimal+1)^0,7,c
   905  000354  EFB7  F001         	goto	u450
   906  000358  0E31               	movlw	49
   907  00035A  5C09               	subwf	_convertedDecimal^0,w,c
   908  00035C  0E03               	movlw	3
   909  00035E  580A               	subwfb	(_convertedDecimal+1)^0,w,c
   910  000360  B0D8               	btfsc	status,0,c
   911  000362  EFB5  F001         	goto	u451
   912  000366  EFB7  F001         	goto	u450
   913  00036A                     u451:
   914  00036A  EFBD  F001         	goto	l1292
   915  00036E                     u450:
   916  00036E                     
   917                           ;source_headers/main.c: 38:         return 7;
   918  00036E  0E00               	movlw	0
   919  000370  6E1A               	movwf	(?_mapADC+1)^0,c
   920  000372  0E07               	movlw	7
   921  000374  6E19               	movwf	?_mapADC^0,c
   922  000376  EFE3  F001         	goto	l166
   923  00037A                     l1292:
   924  00037A  BE0A               	btfsc	(_convertedDecimal+1)^0,7,c
   925  00037C  EFCB  F001         	goto	u460
   926  000380  0E97               	movlw	151
   927  000382  5C09               	subwf	_convertedDecimal^0,w,c
   928  000384  0E03               	movlw	3
   929  000386  580A               	subwfb	(_convertedDecimal+1)^0,w,c
   930  000388  B0D8               	btfsc	status,0,c
   931  00038A  EFC9  F001         	goto	u461
   932  00038E  EFCB  F001         	goto	u460
   933  000392                     u461:
   934  000392  EFD1  F001         	goto	l1300
   935  000396                     u460:
   936  000396                     
   937                           ;source_headers/main.c: 40:         return 8;
   938  000396  0E00               	movlw	0
   939  000398  6E1A               	movwf	(?_mapADC+1)^0,c
   940  00039A  0E08               	movlw	8
   941  00039C  6E19               	movwf	?_mapADC^0,c
   942  00039E  EFE3  F001         	goto	l166
   943  0003A2                     l1300:
   944  0003A2  BE0A               	btfsc	(_convertedDecimal+1)^0,7,c
   945  0003A4  EFDD  F001         	goto	u470
   946  0003A8  0E04               	movlw	4
   947  0003AA  5C0A               	subwf	(_convertedDecimal+1)^0,w,c
   948  0003AC  B0D8               	btfsc	status,0,c
   949  0003AE  EFDB  F001         	goto	u471
   950  0003B2  EFDD  F001         	goto	u470
   951  0003B6                     u471:
   952  0003B6  EFE3  F001         	goto	l179
   953  0003BA                     u470:
   954  0003BA                     
   955                           ;source_headers/main.c: 42:         return 9;
   956  0003BA  0E00               	movlw	0
   957  0003BC  6E1A               	movwf	(?_mapADC+1)^0,c
   958  0003BE  0E09               	movlw	9
   959  0003C0  6E19               	movwf	?_mapADC^0,c
   960  0003C2  EFE3  F001         	goto	l166
   961  0003C6                     l179:
   962  0003C6                     l166:
   963  0003C6  0012               	return		;funcret
   964  0003C8                     __end_of_mapADC:
   965                           	callstack 0
   966                           
   967 ;; *************** function _hs_passed *****************
   968 ;; Defined at:
   969 ;;		line 11 in file "source_headers/breakpoints.c"
   970 ;; Parameters:    Size  Location     Type
   971 ;;		None
   972 ;; Auto vars:     Size  Location     Type
   973 ;;		None
   974 ;; Return value:  Size  Location     Type
   975 ;;                  1    wreg      void 
   976 ;; Registers used:
   977 ;;		None
   978 ;; Tracked objects:
   979 ;;		On entry : 0/0
   980 ;;		On exit  : 0/0
   981 ;;		Unchanged: 0/0
   982 ;; Data sizes:     COMRAM   BANK0   BANK1   BANK2   BANK3   BANK4   BANK5   BANK6   BANK7   BANK8   BANK9  BANK10  BANK1
      +1  BANK12  BANK13  BANK14  BANK15
   983 ;;      Params:         0       0       0       0       0       0       0       0       0       0       0       0       
      +0       0       0       0       0
   984 ;;      Locals:         0       0       0       0       0       0       0       0       0       0       0       0       
      +0       0       0       0       0
   985 ;;      Temps:          0       0       0       0       0       0       0       0       0       0       0       0       
      +0       0       0       0       0
   986 ;;      Totals:         0       0       0       0       0       0       0       0       0       0       0       0       
      +0       0       0       0       0
   987 ;;Total ram usage:        0 bytes
   988 ;; Hardware stack levels used:    1
   989 ;; Hardware stack levels required when called:    1
   990 ;; This function calls:
   991 ;;		Nothing
   992 ;; This function is called by:
   993 ;;		_main
   994 ;; This function uses a non-reentrant model
   995 ;;
   996                           
   997                           	psect	text4
   998  000712                     __ptext4:
   999                           	callstack 0
  1000  000712                     _hs_passed:
  1001                           	callstack 29
  1002  000712  0012               	return		;funcret
  1003  000714                     __end_of_hs_passed:
  1004                           	callstack 0
  1005                           
  1006 ;; *************** function _game_over *****************
  1007 ;; Defined at:
  1008 ;;		line 12 in file "source_headers/breakpoints.c"
  1009 ;; Parameters:    Size  Location     Type
  1010 ;;		None
  1011 ;; Auto vars:     Size  Location     Type
  1012 ;;		None
  1013 ;; Return value:  Size  Location     Type
  1014 ;;                  1    wreg      void 
  1015 ;; Registers used:
  1016 ;;		None
  1017 ;; Tracked objects:
  1018 ;;		On entry : 0/0
  1019 ;;		On exit  : 0/0
  1020 ;;		Unchanged: 0/0
  1021 ;; Data sizes:     COMRAM   BANK0   BANK1   BANK2   BANK3   BANK4   BANK5   BANK6   BANK7   BANK8   BANK9  BANK10  BANK1
      +1  BANK12  BANK13  BANK14  BANK15
  1022 ;;      Params:         0       0       0       0       0       0       0       0       0       0       0       0       
      +0       0       0       0       0
  1023 ;;      Locals:         0       0       0       0       0       0       0       0       0       0       0       0       
      +0       0       0       0       0
  1024 ;;      Temps:          0       0       0       0       0       0       0       0       0       0       0       0       
      +0       0       0       0       0
  1025 ;;      Totals:         0       0       0       0       0       0       0       0       0       0       0       0       
      +0       0       0       0       0
  1026 ;;Total ram usage:        0 bytes
  1027 ;; Hardware stack levels used:    1
  1028 ;; Hardware stack levels required when called:    1
  1029 ;; This function calls:
  1030 ;;		Nothing
  1031 ;; This function is called by:
  1032 ;;		_main
  1033 ;; This function uses a non-reentrant model
  1034 ;;
  1035                           
  1036                           	psect	text5
  1037  000714                     __ptext5:
  1038                           	callstack 0
  1039  000714                     _game_over:
  1040                           	callstack 29
  1041  000714  0012               	return		;funcret
  1042  000716                     __end_of_game_over:
  1043                           	callstack 0
  1044                           
  1045 ;; *************** function _correct_guess *****************
  1046 ;; Defined at:
  1047 ;;		line 10 in file "source_headers/breakpoints.c"
  1048 ;; Parameters:    Size  Location     Type
  1049 ;;		None
  1050 ;; Auto vars:     Size  Location     Type
  1051 ;;		None
  1052 ;; Return value:  Size  Location     Type
  1053 ;;                  1    wreg      void 
  1054 ;; Registers used:
  1055 ;;		None
  1056 ;; Tracked objects:
  1057 ;;		On entry : 0/0
  1058 ;;		On exit  : 0/0
  1059 ;;		Unchanged: 0/0
  1060 ;; Data sizes:     COMRAM   BANK0   BANK1   BANK2   BANK3   BANK4   BANK5   BANK6   BANK7   BANK8   BANK9  BANK10  BANK1
      +1  BANK12  BANK13  BANK14  BANK15
  1061 ;;      Params:         0       0       0       0       0       0       0       0       0       0       0       0       
      +0       0       0       0       0
  1062 ;;      Locals:         0       0       0       0       0       0       0       0       0       0       0       0       
      +0       0       0       0       0
  1063 ;;      Temps:          0       0       0       0       0       0       0       0       0       0       0       0       
      +0       0       0       0       0
  1064 ;;      Totals:         0       0       0       0       0       0       0       0       0       0       0       0       
      +0       0       0       0       0
  1065 ;;Total ram usage:        0 bytes
  1066 ;; Hardware stack levels used:    1
  1067 ;; Hardware stack levels required when called:    1
  1068 ;; This function calls:
  1069 ;;		Nothing
  1070 ;; This function is called by:
  1071 ;;		_main
  1072 ;; This function uses a non-reentrant model
  1073 ;;
  1074                           
  1075                           	psect	text6
  1076  000716                     __ptext6:
  1077                           	callstack 0
  1078  000716                     _correct_guess:
  1079                           	callstack 29
  1080  000716  0012               	return		;funcret
  1081  000718                     __end_of_correct_guess:
  1082                           	callstack 0
  1083                           
  1084 ;; *************** function _adc_complete *****************
  1085 ;; Defined at:
  1086 ;;		line 6 in file "source_headers/breakpoints.c"
  1087 ;; Parameters:    Size  Location     Type
  1088 ;;		None
  1089 ;; Auto vars:     Size  Location     Type
  1090 ;;		None
  1091 ;; Return value:  Size  Location     Type
  1092 ;;                  1    wreg      void 
  1093 ;; Registers used:
  1094 ;;		None
  1095 ;; Tracked objects:
  1096 ;;		On entry : 0/0
  1097 ;;		On exit  : 0/0
  1098 ;;		Unchanged: 0/0
  1099 ;; Data sizes:     COMRAM   BANK0   BANK1   BANK2   BANK3   BANK4   BANK5   BANK6   BANK7   BANK8   BANK9  BANK10  BANK1
      +1  BANK12  BANK13  BANK14  BANK15
  1100 ;;      Params:         0       0       0       0       0       0       0       0       0       0       0       0       
      +0       0       0       0       0
  1101 ;;      Locals:         0       0       0       0       0       0       0       0       0       0       0       0       
      +0       0       0       0       0
  1102 ;;      Temps:          0       0       0       0       0       0       0       0       0       0       0       0       
      +0       0       0       0       0
  1103 ;;      Totals:         0       0       0       0       0       0       0       0       0       0       0       0       
      +0       0       0       0       0
  1104 ;;Total ram usage:        0 bytes
  1105 ;; Hardware stack levels used:    1
  1106 ;; Hardware stack levels required when called:    1
  1107 ;; This function calls:
  1108 ;;		Nothing
  1109 ;; This function is called by:
  1110 ;;		_main
  1111 ;; This function uses a non-reentrant model
  1112 ;;
  1113                           
  1114                           	psect	text7
  1115  000718                     __ptext7:
  1116                           	callstack 0
  1117  000718                     _adc_complete:
  1118                           	callstack 29
  1119  000718  0012               	return		;funcret
  1120  00071A                     __end_of_adc_complete:
  1121                           	callstack 0
  1122                           
  1123 ;; *************** function ___awdiv *****************
  1124 ;; Defined at:
  1125 ;;		line 7 in file "/opt/microchip/xc8/v2.20/pic/sources/c99/common/awdiv.c"
  1126 ;; Parameters:    Size  Location     Type
  1127 ;;  dividend        2    0[COMRAM] int 
  1128 ;;  divisor         2    2[COMRAM] int 
  1129 ;; Auto vars:     Size  Location     Type
  1130 ;;  quotient        2    6[COMRAM] int 
  1131 ;;  sign            1    5[COMRAM] unsigned char 
  1132 ;;  counter         1    4[COMRAM] unsigned char 
  1133 ;; Return value:  Size  Location     Type
  1134 ;;                  2    0[COMRAM] int 
  1135 ;; Registers used:
  1136 ;;		wreg, status,2, status,0
  1137 ;; Tracked objects:
  1138 ;;		On entry : 0/0
  1139 ;;		On exit  : 0/0
  1140 ;;		Unchanged: 0/0
  1141 ;; Data sizes:     COMRAM   BANK0   BANK1   BANK2   BANK3   BANK4   BANK5   BANK6   BANK7   BANK8   BANK9  BANK10  BANK1
      +1  BANK12  BANK13  BANK14  BANK15
  1142 ;;      Params:         4       0       0       0       0       0       0       0       0       0       0       0       
      +0       0       0       0       0
  1143 ;;      Locals:         4       0       0       0       0       0       0       0       0       0       0       0       
      +0       0       0       0       0
  1144 ;;      Temps:          0       0       0       0       0       0       0       0       0       0       0       0       
      +0       0       0       0       0
  1145 ;;      Totals:         8       0       0       0       0       0       0       0       0       0       0       0       
      +0       0       0       0       0
  1146 ;;Total ram usage:        8 bytes
  1147 ;; Hardware stack levels used:    1
  1148 ;; Hardware stack levels required when called:    1
  1149 ;; This function calls:
  1150 ;;		Nothing
  1151 ;; This function is called by:
  1152 ;;		_main
  1153 ;; This function uses a non-reentrant model
  1154 ;;
  1155                           
  1156                           	psect	text8
  1157  000492                     __ptext8:
  1158                           	callstack 0
  1159  000492                     ___awdiv:
  1160                           	callstack 29
  1161  000492  0E00               	movlw	0
  1162  000494  6E1E               	movwf	___awdiv@sign^0,c
  1163  000496  BE1C               	btfsc	(___awdiv@divisor+1)^0,7,c
  1164  000498  EF52  F002         	goto	u500
  1165  00049C  EF50  F002         	goto	u501
  1166  0004A0                     u501:
  1167  0004A0  EF58  F002         	goto	l1356
  1168  0004A4                     u500:
  1169  0004A4  6C1B               	negf	___awdiv@divisor^0,c
  1170  0004A6  1E1C               	comf	(___awdiv@divisor+1)^0,f,c
  1171  0004A8  B0D8               	btfsc	status,0,c
  1172  0004AA  2A1C               	incf	(___awdiv@divisor+1)^0,f,c
  1173  0004AC  0E01               	movlw	1
  1174  0004AE  6E1E               	movwf	___awdiv@sign^0,c
  1175  0004B0                     l1356:
  1176  0004B0  BE1A               	btfsc	(___awdiv@dividend+1)^0,7,c
  1177  0004B2  EF5F  F002         	goto	u510
  1178  0004B6  EF5D  F002         	goto	u511
  1179  0004BA                     u511:
  1180  0004BA  EF65  F002         	goto	l1362
  1181  0004BE                     u510:
  1182  0004BE  6C19               	negf	___awdiv@dividend^0,c
  1183  0004C0  1E1A               	comf	(___awdiv@dividend+1)^0,f,c
  1184  0004C2  B0D8               	btfsc	status,0,c
  1185  0004C4  2A1A               	incf	(___awdiv@dividend+1)^0,f,c
  1186  0004C6  0E01               	movlw	1
  1187  0004C8  1A1E               	xorwf	___awdiv@sign^0,f,c
  1188  0004CA                     l1362:
  1189  0004CA  0E00               	movlw	0
  1190  0004CC  6E20               	movwf	(___awdiv@quotient+1)^0,c
  1191  0004CE  0E00               	movlw	0
  1192  0004D0  6E1F               	movwf	___awdiv@quotient^0,c
  1193  0004D2  501B               	movf	___awdiv@divisor^0,w,c
  1194  0004D4  101C               	iorwf	(___awdiv@divisor+1)^0,w,c
  1195  0004D6  B4D8               	btfsc	status,2,c
  1196  0004D8  EF70  F002         	goto	u521
  1197  0004DC  EF72  F002         	goto	u520
  1198  0004E0                     u521:
  1199  0004E0  EF9A  F002         	goto	l1384
  1200  0004E4                     u520:
  1201  0004E4  0E01               	movlw	1
  1202  0004E6  6E1D               	movwf	___awdiv@counter^0,c
  1203  0004E8  EF7A  F002         	goto	l1370
  1204  0004EC                     l1368:
  1205  0004EC  90D8               	bcf	status,0,c
  1206  0004EE  361B               	rlcf	___awdiv@divisor^0,f,c
  1207  0004F0  361C               	rlcf	(___awdiv@divisor+1)^0,f,c
  1208  0004F2  2A1D               	incf	___awdiv@counter^0,f,c
  1209  0004F4                     l1370:
  1210  0004F4  AE1C               	btfss	(___awdiv@divisor+1)^0,7,c
  1211  0004F6  EF7F  F002         	goto	u531
  1212  0004FA  EF81  F002         	goto	u530
  1213  0004FE                     u531:
  1214  0004FE  EF76  F002         	goto	l1368
  1215  000502                     u530:
  1216  000502                     l1372:
  1217  000502  90D8               	bcf	status,0,c
  1218  000504  361F               	rlcf	___awdiv@quotient^0,f,c
  1219  000506  3620               	rlcf	(___awdiv@quotient+1)^0,f,c
  1220  000508  501B               	movf	___awdiv@divisor^0,w,c
  1221  00050A  5C19               	subwf	___awdiv@dividend^0,w,c
  1222  00050C  501C               	movf	(___awdiv@divisor+1)^0,w,c
  1223  00050E  581A               	subwfb	(___awdiv@dividend+1)^0,w,c
  1224  000510  A0D8               	btfss	status,0,c
  1225  000512  EF8D  F002         	goto	u541
  1226  000516  EF8F  F002         	goto	u540
  1227  00051A                     u541:
  1228  00051A  EF94  F002         	goto	l1380
  1229  00051E                     u540:
  1230  00051E  501B               	movf	___awdiv@divisor^0,w,c
  1231  000520  5E19               	subwf	___awdiv@dividend^0,f,c
  1232  000522  501C               	movf	(___awdiv@divisor+1)^0,w,c
  1233  000524  5A1A               	subwfb	(___awdiv@dividend+1)^0,f,c
  1234  000526  801F               	bsf	___awdiv@quotient^0,0,c
  1235  000528                     l1380:
  1236  000528  90D8               	bcf	status,0,c
  1237  00052A  321C               	rrcf	(___awdiv@divisor+1)^0,f,c
  1238  00052C  321B               	rrcf	___awdiv@divisor^0,f,c
  1239  00052E  2E1D               	decfsz	___awdiv@counter^0,f,c
  1240  000530  EF81  F002         	goto	l1372
  1241  000534                     l1384:
  1242  000534  501E               	movf	___awdiv@sign^0,w,c
  1243  000536  B4D8               	btfsc	status,2,c
  1244  000538  EFA0  F002         	goto	u551
  1245  00053C  EFA2  F002         	goto	u550
  1246  000540                     u551:
  1247  000540  EFA6  F002         	goto	l1388
  1248  000544                     u550:
  1249  000544  6C1F               	negf	___awdiv@quotient^0,c
  1250  000546  1E20               	comf	(___awdiv@quotient+1)^0,f,c
  1251  000548  B0D8               	btfsc	status,0,c
  1252  00054A  2A20               	incf	(___awdiv@quotient+1)^0,f,c
  1253  00054C                     l1388:
  1254  00054C  C01F  F019         	movff	___awdiv@quotient,?___awdiv
  1255  000550  C020  F01A         	movff	___awdiv@quotient+1,?___awdiv+1
  1256  000554  0012               	return		;funcret
  1257  000556                     __end_of___awdiv:
  1258                           	callstack 0
  1259                           
  1260 ;; *************** function _UpdateLeds *****************
  1261 ;; Defined at:
  1262 ;;		line 164 in file "source_headers/main.c"
  1263 ;; Parameters:    Size  Location     Type
  1264 ;;  down_up         2    0[COMRAM] int 
  1265 ;; Auto vars:     Size  Location     Type
  1266 ;;		None
  1267 ;; Return value:  Size  Location     Type
  1268 ;;                  1    wreg      void 
  1269 ;; Registers used:
  1270 ;;		wreg, status,2, status,0, cstack
  1271 ;; Tracked objects:
  1272 ;;		On entry : 0/0
  1273 ;;		On exit  : 0/0
  1274 ;;		Unchanged: 0/0
  1275 ;; Data sizes:     COMRAM   BANK0   BANK1   BANK2   BANK3   BANK4   BANK5   BANK6   BANK7   BANK8   BANK9  BANK10  BANK1
      +1  BANK12  BANK13  BANK14  BANK15
  1276 ;;      Params:         2       0       0       0       0       0       0       0       0       0       0       0       
      +0       0       0       0       0
  1277 ;;      Locals:         0       0       0       0       0       0       0       0       0       0       0       0       
      +0       0       0       0       0
  1278 ;;      Temps:          0       0       0       0       0       0       0       0       0       0       0       0       
      +0       0       0       0       0
  1279 ;;      Totals:         2       0       0       0       0       0       0       0       0       0       0       0       
      +0       0       0       0       0
  1280 ;;Total ram usage:        2 bytes
  1281 ;; Hardware stack levels used:    1
  1282 ;; Hardware stack levels required when called:    2
  1283 ;; This function calls:
  1284 ;;		_latcde_update_complete
  1285 ;; This function is called by:
  1286 ;;		_main
  1287 ;; This function uses a non-reentrant model
  1288 ;;
  1289                           
  1290                           	psect	text9
  1291  00067C                     __ptext9:
  1292                           	callstack 0
  1293  00067C                     _UpdateLeds:
  1294                           	callstack 28
  1295  00067C                     
  1296                           ;source_headers/main.c: 167:     if (down_up==0){
  1297  00067C  5019               	movf	UpdateLeds@down_up^0,w,c
  1298  00067E  101A               	iorwf	(UpdateLeds@down_up+1)^0,w,c
  1299  000680  A4D8               	btfss	status,2,c
  1300  000682  EF45  F003         	goto	u481
  1301  000686  EF47  F003         	goto	u480
  1302  00068A                     u481:
  1303  00068A  EF51  F003         	goto	l1342
  1304  00068E                     u480:
  1305  00068E                     
  1306                           ;source_headers/main.c: 169:         LATD0=1;
  1307  00068E  808C               	bsf	3980,0,c	;volatile
  1308                           
  1309                           ;source_headers/main.c: 170:         LATD1=1;
  1310  000690  828C               	bsf	3980,1,c	;volatile
  1311                           
  1312                           ;source_headers/main.c: 171:         LATD2=1;
  1313  000692  848C               	bsf	3980,2,c	;volatile
  1314                           
  1315                           ;source_headers/main.c: 172:         LATD3=1;
  1316  000694  868C               	bsf	3980,3,c	;volatile
  1317                           
  1318                           ;source_headers/main.c: 174:         LATC1=0;
  1319  000696  928B               	bcf	3979,1,c	;volatile
  1320                           
  1321                           ;source_headers/main.c: 175:         LATE1=0;
  1322  000698  928D               	bcf	3981,1,c	;volatile
  1323                           
  1324                           ;source_headers/main.c: 176:         LATC2=1;
  1325  00069A  848B               	bsf	3979,2,c	;volatile
  1326                           
  1327                           ;source_headers/main.c: 177:         LATE2=1;
  1328  00069C  848D               	bsf	3981,2,c	;volatile
  1329                           
  1330                           ;source_headers/main.c: 178:     }
  1331  00069E  EF6C  F003         	goto	l1346
  1332  0006A2                     l1342:
  1333  0006A2  0419               	decf	UpdateLeds@down_up^0,w,c
  1334  0006A4  101A               	iorwf	(UpdateLeds@down_up+1)^0,w,c
  1335  0006A6  A4D8               	btfss	status,2,c
  1336  0006A8  EF58  F003         	goto	u491
  1337  0006AC  EF5A  F003         	goto	u490
  1338  0006B0                     u491:
  1339  0006B0  EF64  F003         	goto	l218
  1340  0006B4                     u490:
  1341  0006B4                     
  1342                           ;source_headers/main.c: 181:         LATD0=1;
  1343  0006B4  808C               	bsf	3980,0,c	;volatile
  1344                           
  1345                           ;source_headers/main.c: 182:         LATD1=1;
  1346  0006B6  828C               	bsf	3980,1,c	;volatile
  1347                           
  1348                           ;source_headers/main.c: 183:         LATD2=1;
  1349  0006B8  848C               	bsf	3980,2,c	;volatile
  1350                           
  1351                           ;source_headers/main.c: 184:         LATD3=1;
  1352  0006BA  868C               	bsf	3980,3,c	;volatile
  1353                           
  1354                           ;source_headers/main.c: 186:         LATC1=1;
  1355  0006BC  828B               	bsf	3979,1,c	;volatile
  1356                           
  1357                           ;source_headers/main.c: 187:         LATE1=1;
  1358  0006BE  828D               	bsf	3981,1,c	;volatile
  1359                           
  1360                           ;source_headers/main.c: 188:         LATC2=0;
  1361  0006C0  948B               	bcf	3979,2,c	;volatile
  1362                           
  1363                           ;source_headers/main.c: 189:         LATE2=0;
  1364  0006C2  948D               	bcf	3981,2,c	;volatile
  1365                           
  1366                           ;source_headers/main.c: 190:     }
  1367  0006C4  EF6C  F003         	goto	l1346
  1368  0006C8                     l218:
  1369                           
  1370                           ;source_headers/main.c: 193:         LATD0=0;
  1371  0006C8  908C               	bcf	3980,0,c	;volatile
  1372                           
  1373                           ;source_headers/main.c: 194:         LATD1=0;
  1374  0006CA  928C               	bcf	3980,1,c	;volatile
  1375                           
  1376                           ;source_headers/main.c: 195:         LATD2=0;
  1377  0006CC  948C               	bcf	3980,2,c	;volatile
  1378                           
  1379                           ;source_headers/main.c: 196:         LATD3=0;
  1380  0006CE  968C               	bcf	3980,3,c	;volatile
  1381                           
  1382                           ;source_headers/main.c: 198:         LATC1=0;
  1383  0006D0  928B               	bcf	3979,1,c	;volatile
  1384                           
  1385                           ;source_headers/main.c: 199:         LATE1=0;
  1386  0006D2  928D               	bcf	3981,1,c	;volatile
  1387                           
  1388                           ;source_headers/main.c: 200:         LATC2=0;
  1389  0006D4  948B               	bcf	3979,2,c	;volatile
  1390                           
  1391                           ;source_headers/main.c: 201:         LATE2=0;
  1392  0006D6  948D               	bcf	3981,2,c	;volatile
  1393  0006D8                     l1346:
  1394                           
  1395                           ;source_headers/main.c: 203:     latcde_update_complete();
  1396  0006D8  EC8D  F003         	call	_latcde_update_complete	;wreg free
  1397  0006DC  0012               	return		;funcret
  1398  0006DE                     __end_of_UpdateLeds:
  1399                           	callstack 0
  1400                           
  1401 ;; *************** function _latcde_update_complete *****************
  1402 ;; Defined at:
  1403 ;;		line 9 in file "source_headers/breakpoints.c"
  1404 ;; Parameters:    Size  Location     Type
  1405 ;;		None
  1406 ;; Auto vars:     Size  Location     Type
  1407 ;;		None
  1408 ;; Return value:  Size  Location     Type
  1409 ;;                  1    wreg      void 
  1410 ;; Registers used:
  1411 ;;		None
  1412 ;; Tracked objects:
  1413 ;;		On entry : 0/0
  1414 ;;		On exit  : 0/0
  1415 ;;		Unchanged: 0/0
  1416 ;; Data sizes:     COMRAM   BANK0   BANK1   BANK2   BANK3   BANK4   BANK5   BANK6   BANK7   BANK8   BANK9  BANK10  BANK1
      +1  BANK12  BANK13  BANK14  BANK15
  1417 ;;      Params:         0       0       0       0       0       0       0       0       0       0       0       0       
      +0       0       0       0       0
  1418 ;;      Locals:         0       0       0       0       0       0       0       0       0       0       0       0       
      +0       0       0       0       0
  1419 ;;      Temps:          0       0       0       0       0       0       0       0       0       0       0       0       
      +0       0       0       0       0
  1420 ;;      Totals:         0       0       0       0       0       0       0       0       0       0       0       0       
      +0       0       0       0       0
  1421 ;;Total ram usage:        0 bytes
  1422 ;; Hardware stack levels used:    1
  1423 ;; Hardware stack levels required when called:    1
  1424 ;; This function calls:
  1425 ;;		Nothing
  1426 ;; This function is called by:
  1427 ;;		_UpdateLeds
  1428 ;; This function uses a non-reentrant model
  1429 ;;
  1430                           
  1431                           	psect	text10
  1432  00071A                     __ptext10:
  1433                           	callstack 0
  1434  00071A                     _latcde_update_complete:
  1435                           	callstack 28
  1436  00071A  0012               	return		;funcret
  1437  00071C                     __end_of_latcde_update_complete:
  1438                           	callstack 0
  1439                           
  1440 ;; *************** function _Update7Segment *****************
  1441 ;; Defined at:
  1442 ;;		line 125 in file "source_headers/main.c"
  1443 ;; Parameters:    Size  Location     Type
  1444 ;;  value_to_dis    2    0[COMRAM] int 
  1445 ;; Auto vars:     Size  Location     Type
  1446 ;;		None
  1447 ;; Return value:  Size  Location     Type
  1448 ;;                  1    wreg      void 
  1449 ;; Registers used:
  1450 ;;		wreg, status,2, status,0, cstack
  1451 ;; Tracked objects:
  1452 ;;		On entry : 0/0
  1453 ;;		On exit  : 0/0
  1454 ;;		Unchanged: 0/0
  1455 ;; Data sizes:     COMRAM   BANK0   BANK1   BANK2   BANK3   BANK4   BANK5   BANK6   BANK7   BANK8   BANK9  BANK10  BANK1
      +1  BANK12  BANK13  BANK14  BANK15
  1456 ;;      Params:         2       0       0       0       0       0       0       0       0       0       0       0       
      +0       0       0       0       0
  1457 ;;      Locals:         0       0       0       0       0       0       0       0       0       0       0       0       
      +0       0       0       0       0
  1458 ;;      Temps:          2       0       0       0       0       0       0       0       0       0       0       0       
      +0       0       0       0       0
  1459 ;;      Totals:         4       0       0       0       0       0       0       0       0       0       0       0       
      +0       0       0       0       0
  1460 ;;Total ram usage:        4 bytes
  1461 ;; Hardware stack levels used:    1
  1462 ;; Hardware stack levels required when called:    2
  1463 ;; This function calls:
  1464 ;;		_latjh_update_complete
  1465 ;; This function is called by:
  1466 ;;		_main
  1467 ;; This function uses a non-reentrant model
  1468 ;;
  1469                           
  1470                           	psect	text11
  1471  0003C8                     __ptext11:
  1472                           	callstack 0
  1473  0003C8                     _Update7Segment:
  1474                           	callstack 28
  1475  0003C8                     
  1476                           ;source_headers/main.c: 127:     LATH0=1;
  1477  0003C8  8090               	bsf	3984,0,c	;volatile
  1478                           
  1479                           ;source_headers/main.c: 128:     switch (value_to_display){
  1480  0003CA  EF0F  F002         	goto	l1330
  1481  0003CE                     l1308:
  1482                           
  1483                           ;source_headers/main.c: 130:             LATJ = 63;
  1484  0003CE  0E3F               	movlw	63
  1485  0003D0  6E91               	movwf	145,c	;volatile
  1486                           
  1487                           ;source_headers/main.c: 131:             break;
  1488  0003D2  EF45  F002         	goto	l203
  1489  0003D6                     l1310:
  1490                           
  1491                           ;source_headers/main.c: 133:             LATJ = 6;
  1492  0003D6  0E06               	movlw	6
  1493  0003D8  6E91               	movwf	145,c	;volatile
  1494                           
  1495                           ;source_headers/main.c: 134:             break;
  1496  0003DA  EF45  F002         	goto	l203
  1497  0003DE                     l1312:
  1498                           
  1499                           ;source_headers/main.c: 136:             LATJ = 91;
  1500  0003DE  0E5B               	movlw	91
  1501  0003E0  6E91               	movwf	145,c	;volatile
  1502                           
  1503                           ;source_headers/main.c: 137:             break;
  1504  0003E2  EF45  F002         	goto	l203
  1505  0003E6                     l1314:
  1506                           
  1507                           ;source_headers/main.c: 139:             LATJ = 79;
  1508  0003E6  0E4F               	movlw	79
  1509  0003E8  6E91               	movwf	145,c	;volatile
  1510                           
  1511                           ;source_headers/main.c: 140:             break;
  1512  0003EA  EF45  F002         	goto	l203
  1513  0003EE                     l1316:
  1514                           
  1515                           ;source_headers/main.c: 142:             LATJ = 102;
  1516  0003EE  0E66               	movlw	102
  1517  0003F0  6E91               	movwf	145,c	;volatile
  1518                           
  1519                           ;source_headers/main.c: 143:             break;
  1520  0003F2  EF45  F002         	goto	l203
  1521  0003F6                     l1318:
  1522                           
  1523                           ;source_headers/main.c: 145:             LATJ = 109;
  1524  0003F6  0E6D               	movlw	109
  1525  0003F8  6E91               	movwf	145,c	;volatile
  1526                           
  1527                           ;source_headers/main.c: 146:             break;
  1528  0003FA  EF45  F002         	goto	l203
  1529  0003FE                     l1320:
  1530                           
  1531                           ;source_headers/main.c: 148:             LATJ = 125;
  1532  0003FE  0E7D               	movlw	125
  1533  000400  6E91               	movwf	145,c	;volatile
  1534                           
  1535                           ;source_headers/main.c: 149:             break;
  1536  000402  EF45  F002         	goto	l203
  1537  000406                     l1322:
  1538                           
  1539                           ;source_headers/main.c: 151:             LATJ = 7;
  1540  000406  0E07               	movlw	7
  1541  000408  6E91               	movwf	145,c	;volatile
  1542                           
  1543                           ;source_headers/main.c: 152:             break;
  1544  00040A  EF45  F002         	goto	l203
  1545  00040E                     l1324:
  1546                           
  1547                           ;source_headers/main.c: 154:             LATJ = 127;
  1548  00040E  0E7F               	movlw	127
  1549  000410  6E91               	movwf	145,c	;volatile
  1550                           
  1551                           ;source_headers/main.c: 155:             break;
  1552  000412  EF45  F002         	goto	l203
  1553  000416                     l1326:
  1554                           
  1555                           ;source_headers/main.c: 157:             LATJ = 111;
  1556  000416  0E6F               	movlw	111
  1557  000418  6E91               	movwf	145,c	;volatile
  1558                           
  1559                           ;source_headers/main.c: 158:             break;
  1560  00041A  EF45  F002         	goto	l203
  1561  00041E                     l1330:
  1562  00041E  C019  F01B         	movff	Update7Segment@value_to_display,??_Update7Segment
  1563  000422  C01A  F01C         	movff	Update7Segment@value_to_display+1,??_Update7Segment+1
  1564                           
  1565                           ; Switch on 2 bytes has been partitioned into a top level switch of size 1, and 1 sub-sw
      +                          itches
  1566                           ; Switch size 1, requested type "simple"
  1567                           ; Number of cases is 1, Range of values is 0 to 0
  1568                           ; switch strategies available:
  1569                           ; Name         Instructions Cycles
  1570                           ; simple_byte            4     3 (average)
  1571                           ;	Chosen strategy is simple_byte
  1572  000426  501C               	movf	(??_Update7Segment+1)^0,w,c
  1573  000428  0A00               	xorlw	0	; case 0
  1574  00042A  B4D8               	btfsc	status,2,c
  1575  00042C  EF1A  F002         	goto	l1472
  1576  000430  EF45  F002         	goto	l203
  1577  000434                     l1472:
  1578                           
  1579                           ; Switch size 1, requested type "simple"
  1580                           ; Number of cases is 10, Range of values is 0 to 9
  1581                           ; switch strategies available:
  1582                           ; Name         Instructions Cycles
  1583                           ; simple_byte           31    16 (average)
  1584                           ;	Chosen strategy is simple_byte
  1585  000434  501B               	movf	??_Update7Segment^0,w,c
  1586  000436  0A00               	xorlw	0	; case 0
  1587  000438  B4D8               	btfsc	status,2,c
  1588  00043A  EFE7  F001         	goto	l1308
  1589  00043E  0A01               	xorlw	1	; case 1
  1590  000440  B4D8               	btfsc	status,2,c
  1591  000442  EFEB  F001         	goto	l1310
  1592  000446  0A03               	xorlw	3	; case 2
  1593  000448  B4D8               	btfsc	status,2,c
  1594  00044A  EFEF  F001         	goto	l1312
  1595  00044E  0A01               	xorlw	1	; case 3
  1596  000450  B4D8               	btfsc	status,2,c
  1597  000452  EFF3  F001         	goto	l1314
  1598  000456  0A07               	xorlw	7	; case 4
  1599  000458  B4D8               	btfsc	status,2,c
  1600  00045A  EFF7  F001         	goto	l1316
  1601  00045E  0A01               	xorlw	1	; case 5
  1602  000460  B4D8               	btfsc	status,2,c
  1603  000462  EFFB  F001         	goto	l1318
  1604  000466  0A03               	xorlw	3	; case 6
  1605  000468  B4D8               	btfsc	status,2,c
  1606  00046A  EFFF  F001         	goto	l1320
  1607  00046E  0A01               	xorlw	1	; case 7
  1608  000470  B4D8               	btfsc	status,2,c
  1609  000472  EF03  F002         	goto	l1322
  1610  000476  0A0F               	xorlw	15	; case 8
  1611  000478  B4D8               	btfsc	status,2,c
  1612  00047A  EF07  F002         	goto	l1324
  1613  00047E  0A01               	xorlw	1	; case 9
  1614  000480  B4D8               	btfsc	status,2,c
  1615  000482  EF0B  F002         	goto	l1326
  1616  000486  EF45  F002         	goto	l203
  1617  00048A                     l203:
  1618                           
  1619                           ;source_headers/main.c: 160:     LATH0 = 0;
  1620  00048A  9090               	bcf	3984,0,c	;volatile
  1621  00048C                     
  1622                           ;source_headers/main.c: 161:     latjh_update_complete();
  1623  00048C  EC8E  F003         	call	_latjh_update_complete	;wreg free
  1624  000490  0012               	return		;funcret
  1625  000492                     __end_of_Update7Segment:
  1626                           	callstack 0
  1627                           
  1628 ;; *************** function _latjh_update_complete *****************
  1629 ;; Defined at:
  1630 ;;		line 8 in file "source_headers/breakpoints.c"
  1631 ;; Parameters:    Size  Location     Type
  1632 ;;		None
  1633 ;; Auto vars:     Size  Location     Type
  1634 ;;		None
  1635 ;; Return value:  Size  Location     Type
  1636 ;;                  1    wreg      void 
  1637 ;; Registers used:
  1638 ;;		None
  1639 ;; Tracked objects:
  1640 ;;		On entry : 0/0
  1641 ;;		On exit  : 0/0
  1642 ;;		Unchanged: 0/0
  1643 ;; Data sizes:     COMRAM   BANK0   BANK1   BANK2   BANK3   BANK4   BANK5   BANK6   BANK7   BANK8   BANK9  BANK10  BANK1
      +1  BANK12  BANK13  BANK14  BANK15
  1644 ;;      Params:         0       0       0       0       0       0       0       0       0       0       0       0       
      +0       0       0       0       0
  1645 ;;      Locals:         0       0       0       0       0       0       0       0       0       0       0       0       
      +0       0       0       0       0
  1646 ;;      Temps:          0       0       0       0       0       0       0       0       0       0       0       0       
      +0       0       0       0       0
  1647 ;;      Totals:         0       0       0       0       0       0       0       0       0       0       0       0       
      +0       0       0       0       0
  1648 ;;Total ram usage:        0 bytes
  1649 ;; Hardware stack levels used:    1
  1650 ;; Hardware stack levels required when called:    1
  1651 ;; This function calls:
  1652 ;;		Nothing
  1653 ;; This function is called by:
  1654 ;;		_Update7Segment
  1655 ;; This function uses a non-reentrant model
  1656 ;;
  1657                           
  1658                           	psect	text12
  1659  00071C                     __ptext12:
  1660                           	callstack 0
  1661  00071C                     _latjh_update_complete:
  1662                           	callstack 28
  1663  00071C  0012               	return		;funcret
  1664  00071E                     __end_of_latjh_update_complete:
  1665                           	callstack 0
  1666                           
  1667 ;; *************** function _Restart *****************
  1668 ;; Defined at:
  1669 ;;		line 210 in file "source_headers/main.c"
  1670 ;; Parameters:    Size  Location     Type
  1671 ;;		None
  1672 ;; Auto vars:     Size  Location     Type
  1673 ;;		None
  1674 ;; Return value:  Size  Location     Type
  1675 ;;                  1    wreg      void 
  1676 ;; Registers used:
  1677 ;;		cstack
  1678 ;; Tracked objects:
  1679 ;;		On entry : 0/0
  1680 ;;		On exit  : 0/0
  1681 ;;		Unchanged: 0/0
  1682 ;; Data sizes:     COMRAM   BANK0   BANK1   BANK2   BANK3   BANK4   BANK5   BANK6   BANK7   BANK8   BANK9  BANK10  BANK1
      +1  BANK12  BANK13  BANK14  BANK15
  1683 ;;      Params:         0       0       0       0       0       0       0       0       0       0       0       0       
      +0       0       0       0       0
  1684 ;;      Locals:         0       0       0       0       0       0       0       0       0       0       0       0       
      +0       0       0       0       0
  1685 ;;      Temps:          0       0       0       0       0       0       0       0       0       0       0       0       
      +0       0       0       0       0
  1686 ;;      Totals:         0       0       0       0       0       0       0       0       0       0       0       0       
      +0       0       0       0       0
  1687 ;;Total ram usage:        0 bytes
  1688 ;; Hardware stack levels used:    1
  1689 ;; Hardware stack levels required when called:    2
  1690 ;; This function calls:
  1691 ;;		_restart
  1692 ;; This function is called by:
  1693 ;;		_main
  1694 ;; This function uses a non-reentrant model
  1695 ;;
  1696                           
  1697                           	psect	text13
  1698  000706                     __ptext13:
  1699                           	callstack 0
  1700  000706                     _Restart:
  1701                           	callstack 28
  1702  000706                     
  1703                           ;source_headers/main.c: 213:     restart();
  1704  000706  EC8F  F003         	call	_restart	;wreg free
  1705  00070A  0012               	return		;funcret
  1706  00070C                     __end_of_Restart:
  1707                           	callstack 0
  1708                           
  1709 ;; *************** function _restart *****************
  1710 ;; Defined at:
  1711 ;;		line 13 in file "source_headers/breakpoints.c"
  1712 ;; Parameters:    Size  Location     Type
  1713 ;;		None
  1714 ;; Auto vars:     Size  Location     Type
  1715 ;;		None
  1716 ;; Return value:  Size  Location     Type
  1717 ;;                  1    wreg      void 
  1718 ;; Registers used:
  1719 ;;		None
  1720 ;; Tracked objects:
  1721 ;;		On entry : 0/0
  1722 ;;		On exit  : 0/0
  1723 ;;		Unchanged: 0/0
  1724 ;; Data sizes:     COMRAM   BANK0   BANK1   BANK2   BANK3   BANK4   BANK5   BANK6   BANK7   BANK8   BANK9  BANK10  BANK1
      +1  BANK12  BANK13  BANK14  BANK15
  1725 ;;      Params:         0       0       0       0       0       0       0       0       0       0       0       0       
      +0       0       0       0       0
  1726 ;;      Locals:         0       0       0       0       0       0       0       0       0       0       0       0       
      +0       0       0       0       0
  1727 ;;      Temps:          0       0       0       0       0       0       0       0       0       0       0       0       
      +0       0       0       0       0
  1728 ;;      Totals:         0       0       0       0       0       0       0       0       0       0       0       0       
      +0       0       0       0       0
  1729 ;;Total ram usage:        0 bytes
  1730 ;; Hardware stack levels used:    1
  1731 ;; Hardware stack levels required when called:    1
  1732 ;; This function calls:
  1733 ;;		Nothing
  1734 ;; This function is called by:
  1735 ;;		_Restart
  1736 ;; This function uses a non-reentrant model
  1737 ;;
  1738                           
  1739                           	psect	text14
  1740  00071E                     __ptext14:
  1741                           	callstack 0
  1742  00071E                     _restart:
  1743                           	callstack 28
  1744  00071E  0012               	return		;funcret
  1745  000720                     __end_of_restart:
  1746                           	callstack 0
  1747                           
  1748 ;; *************** function _Init *****************
  1749 ;; Defined at:
  1750 ;;		line 85 in file "source_headers/main.c"
  1751 ;; Parameters:    Size  Location     Type
  1752 ;;		None
  1753 ;; Auto vars:     Size  Location     Type
  1754 ;;		None
  1755 ;; Return value:  Size  Location     Type
  1756 ;;                  1    wreg      void 
  1757 ;; Registers used:
  1758 ;;		wreg, status,2, cstack
  1759 ;; Tracked objects:
  1760 ;;		On entry : 0/0
  1761 ;;		On exit  : 0/0
  1762 ;;		Unchanged: 0/0
  1763 ;; Data sizes:     COMRAM   BANK0   BANK1   BANK2   BANK3   BANK4   BANK5   BANK6   BANK7   BANK8   BANK9  BANK10  BANK1
      +1  BANK12  BANK13  BANK14  BANK15
  1764 ;;      Params:         0       0       0       0       0       0       0       0       0       0       0       0       
      +0       0       0       0       0
  1765 ;;      Locals:         0       0       0       0       0       0       0       0       0       0       0       0       
      +0       0       0       0       0
  1766 ;;      Temps:          0       0       0       0       0       0       0       0       0       0       0       0       
      +0       0       0       0       0
  1767 ;;      Totals:         0       0       0       0       0       0       0       0       0       0       0       0       
      +0       0       0       0       0
  1768 ;;Total ram usage:        0 bytes
  1769 ;; Hardware stack levels used:    1
  1770 ;; Hardware stack levels required when called:    2
  1771 ;; This function calls:
  1772 ;;		_init_complete
  1773 ;; This function is called by:
  1774 ;;		_main
  1775 ;; This function uses a non-reentrant model
  1776 ;;
  1777                           
  1778                           	psect	text15
  1779  000612                     __ptext15:
  1780                           	callstack 0
  1781  000612                     _Init:
  1782                           	callstack 28
  1783  000612                     
  1784                           ;source_headers/main.c: 87:     INTCON = 0;
  1785  000612  0E00               	movlw	0
  1786  000614  6EF2               	movwf	242,c	;volatile
  1787                           
  1788                           ;source_headers/main.c: 89:     TMR0 = 0;
  1789  000616  0E00               	movlw	0
  1790  000618  6ED7               	movwf	215,c	;volatile
  1791  00061A  0E00               	movlw	0
  1792  00061C  6ED6               	movwf	214,c	;volatile
  1793                           
  1794                           ;source_headers/main.c: 90:     T0CON = 0b11010111;
  1795  00061E  0ED7               	movlw	215
  1796  000620  6ED5               	movwf	213,c	;volatile
  1797                           
  1798                           ;source_headers/main.c: 91:     TMR0L = 61;
  1799  000622  0E3D               	movlw	61
  1800  000624  6ED6               	movwf	214,c	;volatile
  1801                           
  1802                           ;source_headers/main.c: 93:     timer0_counter = 10;
  1803  000626  0E00               	movlw	0
  1804  000628  6E2A               	movwf	(_timer0_counter+1)^0,c
  1805  00062A  0E0A               	movlw	10
  1806  00062C  6E29               	movwf	_timer0_counter^0,c
  1807  00062E                     
  1808                           ;source_headers/main.c: 94:     TMR0IE = 1;
  1809  00062E  8AF2               	bsf	4082,5,c	;volatile
  1810                           
  1811                           ;source_headers/main.c: 97:     TMR1 = 0;
  1812  000630  0E00               	movlw	0
  1813  000632  6ECF               	movwf	207,c	;volatile
  1814  000634  0E00               	movlw	0
  1815  000636  6ECE               	movwf	206,c	;volatile
  1816                           
  1817                           ;source_headers/main.c: 98:     T1CON = 0b11111001;
  1818  000638  0EF9               	movlw	249
  1819  00063A  6ECD               	movwf	205,c	;volatile
  1820                           
  1821                           ;source_headers/main.c: 99:     TMR1 = 15536;
  1822  00063C  0E3C               	movlw	60
  1823  00063E  6ECF               	movwf	207,c	;volatile
  1824  000640  0EB0               	movlw	176
  1825  000642  6ECE               	movwf	206,c	;volatile
  1826                           
  1827                           ;source_headers/main.c: 101:     timer1_counter = 125;
  1828  000644  0E00               	movlw	0
  1829  000646  6E28               	movwf	(_timer1_counter+1)^0,c
  1830  000648  0E7D               	movlw	125
  1831  00064A  6E27               	movwf	_timer1_counter^0,c
  1832  00064C                     
  1833                           ;source_headers/main.c: 102:     TMR1IE = 1;
  1834  00064C  809D               	bsf	3997,0,c	;volatile
  1835                           
  1836                           ;source_headers/main.c: 104:     ADCON0 = 0x30;
  1837  00064E  0E30               	movlw	48
  1838  000650  6EC2               	movwf	194,c	;volatile
  1839                           
  1840                           ;source_headers/main.c: 105:     ADCON1 = 0;
  1841  000652  0E00               	movlw	0
  1842  000654  6EC1               	movwf	193,c	;volatile
  1843                           
  1844                           ;source_headers/main.c: 106:     ADCON2 = 0xAA;
  1845  000656  0EAA               	movlw	170
  1846  000658  6EC0               	movwf	192,c	;volatile
  1847  00065A                     
  1848                           ;source_headers/main.c: 108:     ADON=1;
  1849  00065A  80C2               	bsf	4034,0,c	;volatile
  1850                           
  1851                           ;source_headers/main.c: 111:     TRISJ = 0;
  1852  00065C  0E00               	movlw	0
  1853  00065E  6E9A               	movwf	154,c	;volatile
  1854                           
  1855                           ;source_headers/main.c: 112:     TRISH = 0;
  1856  000660  0E00               	movlw	0
  1857  000662  6E99               	movwf	153,c	;volatile
  1858                           
  1859                           ;source_headers/main.c: 113:     TRISC = 0;
  1860  000664  0E00               	movlw	0
  1861  000666  6E94               	movwf	148,c	;volatile
  1862                           
  1863                           ;source_headers/main.c: 114:     TRISD = 0;
  1864  000668  0E00               	movlw	0
  1865  00066A  6E95               	movwf	149,c	;volatile
  1866                           
  1867                           ;source_headers/main.c: 115:     TRISE = 0;
  1868  00066C  0E00               	movlw	0
  1869  00066E  6E96               	movwf	150,c	;volatile
  1870  000670                     
  1871                           ;source_headers/main.c: 116:     TRISB = 0b11111111;
  1872  000670  6893               	setf	147,c	;volatile
  1873  000672                     
  1874                           ;source_headers/main.c: 117:     RBIE = 1;
  1875  000672  86F2               	bsf	4082,3,c	;volatile
  1876  000674                     
  1877                           ;source_headers/main.c: 120:     GIE = 1;
  1878  000674  8EF2               	bsf	4082,7,c	;volatile
  1879  000676                     
  1880                           ;source_headers/main.c: 122:     init_complete();
  1881  000676  EC90  F003         	call	_init_complete	;wreg free
  1882  00067A  0012               	return		;funcret
  1883  00067C                     __end_of_Init:
  1884                           	callstack 0
  1885                           
  1886 ;; *************** function _init_complete *****************
  1887 ;; Defined at:
  1888 ;;		line 5 in file "source_headers/breakpoints.c"
  1889 ;; Parameters:    Size  Location     Type
  1890 ;;		None
  1891 ;; Auto vars:     Size  Location     Type
  1892 ;;		None
  1893 ;; Return value:  Size  Location     Type
  1894 ;;                  1    wreg      void 
  1895 ;; Registers used:
  1896 ;;		None
  1897 ;; Tracked objects:
  1898 ;;		On entry : 0/0
  1899 ;;		On exit  : 0/0
  1900 ;;		Unchanged: 0/0
  1901 ;; Data sizes:     COMRAM   BANK0   BANK1   BANK2   BANK3   BANK4   BANK5   BANK6   BANK7   BANK8   BANK9  BANK10  BANK1
      +1  BANK12  BANK13  BANK14  BANK15
  1902 ;;      Params:         0       0       0       0       0       0       0       0       0       0       0       0       
      +0       0       0       0       0
  1903 ;;      Locals:         0       0       0       0       0       0       0       0       0       0       0       0       
      +0       0       0       0       0
  1904 ;;      Temps:          0       0       0       0       0       0       0       0       0       0       0       0       
      +0       0       0       0       0
  1905 ;;      Totals:         0       0       0       0       0       0       0       0       0       0       0       0       
      +0       0       0       0       0
  1906 ;;Total ram usage:        0 bytes
  1907 ;; Hardware stack levels used:    1
  1908 ;; Hardware stack levels required when called:    1
  1909 ;; This function calls:
  1910 ;;		Nothing
  1911 ;; This function is called by:
  1912 ;;		_Init
  1913 ;; This function uses a non-reentrant model
  1914 ;;
  1915                           
  1916                           	psect	text16
  1917  000720                     __ptext16:
  1918                           	callstack 0
  1919  000720                     _init_complete:
  1920                           	callstack 28
  1921  000720  0012               	return		;funcret
  1922  000722                     __end_of_init_complete:
  1923                           	callstack 0
  1924                           
  1925 ;; *************** function _EndGame *****************
  1926 ;; Defined at:
  1927 ;;		line 206 in file "source_headers/main.c"
  1928 ;; Parameters:    Size  Location     Type
  1929 ;;		None
  1930 ;; Auto vars:     Size  Location     Type
  1931 ;;		None
  1932 ;; Return value:  Size  Location     Type
  1933 ;;                  1    wreg      void 
  1934 ;; Registers used:
  1935 ;;		None
  1936 ;; Tracked objects:
  1937 ;;		On entry : 0/0
  1938 ;;		On exit  : 0/0
  1939 ;;		Unchanged: 0/0
  1940 ;; Data sizes:     COMRAM   BANK0   BANK1   BANK2   BANK3   BANK4   BANK5   BANK6   BANK7   BANK8   BANK9  BANK10  BANK1
      +1  BANK12  BANK13  BANK14  BANK15
  1941 ;;      Params:         0       0       0       0       0       0       0       0       0       0       0       0       
      +0       0       0       0       0
  1942 ;;      Locals:         0       0       0       0       0       0       0       0       0       0       0       0       
      +0       0       0       0       0
  1943 ;;      Temps:          0       0       0       0       0       0       0       0       0       0       0       0       
      +0       0       0       0       0
  1944 ;;      Totals:         0       0       0       0       0       0       0       0       0       0       0       0       
      +0       0       0       0       0
  1945 ;;Total ram usage:        0 bytes
  1946 ;; Hardware stack levels used:    1
  1947 ;; Hardware stack levels required when called:    1
  1948 ;; This function calls:
  1949 ;;		Nothing
  1950 ;; This function is called by:
  1951 ;;		_main
  1952 ;; This function uses a non-reentrant model
  1953 ;;
  1954                           
  1955                           	psect	text17
  1956  000722                     __ptext17:
  1957                           	callstack 0
  1958  000722                     _EndGame:
  1959                           	callstack 29
  1960  000722  0012               	return		;funcret
  1961  000724                     __end_of_EndGame:
  1962                           	callstack 0
  1963                           
  1964 ;; *************** function _ISR *****************
  1965 ;; Defined at:
  1966 ;;		line 46 in file "source_headers/main.c"
  1967 ;; Parameters:    Size  Location     Type
  1968 ;;		None
  1969 ;; Auto vars:     Size  Location     Type
  1970 ;;		None
  1971 ;; Return value:  Size  Location     Type
  1972 ;;                  1    wreg      void 
  1973 ;; Registers used:
  1974 ;;		wreg, status,2, status,0
  1975 ;; Tracked objects:
  1976 ;;		On entry : 0/0
  1977 ;;		On exit  : 0/0
  1978 ;;		Unchanged: 0/0
  1979 ;; Data sizes:     COMRAM   BANK0   BANK1   BANK2   BANK3   BANK4   BANK5   BANK6   BANK7   BANK8   BANK9  BANK10  BANK1
      +1  BANK12  BANK13  BANK14  BANK15
  1980 ;;      Params:         0       0       0       0       0       0       0       0       0       0       0       0       
      +0       0       0       0       0
  1981 ;;      Locals:         0       0       0       0       0       0       0       0       0       0       0       0       
      +0       0       0       0       0
  1982 ;;      Temps:          0       0       0       0       0       0       0       0       0       0       0       0       
      +0       0       0       0       0
  1983 ;;      Totals:         0       0       0       0       0       0       0       0       0       0       0       0       
      +0       0       0       0       0
  1984 ;;Total ram usage:        0 bytes
  1985 ;; Hardware stack levels used:    1
  1986 ;; This function calls:
  1987 ;;		Nothing
  1988 ;; This function is called by:
  1989 ;;		Interrupt level 2
  1990 ;; This function uses a non-reentrant model
  1991 ;;
  1992                           
  1993                           	psect	intcode
  1994  000008                     __pintcode:
  1995                           	callstack 0
  1996  000008                     _ISR:
  1997                           	callstack 28
  1998                           
  1999                           ;incstack = 0
  2000  000008  822C               	bsf	int$flags,1,c	;set compiler interrupt flag (level 2)
  2001  00000A  EDAB  F002         	call	int_func,f	;refresh shadow registers
  2002                           
  2003                           	psect	intcode_body
  2004  000556                     __pintcode_body:
  2005                           	callstack 28
  2006  000556                     int_func:
  2007                           	callstack 28
  2008  000556  0006               	pop		; remove dummy address from shadow register refresh
  2009  000558                     
  2010                           ;source_headers/main.c: 49:     if(ADIF == 1) {
  2011  000558  AC9E               	btfss	3998,6,c	;volatile
  2012  00055A  EFB1  F002         	goto	i2u19_41
  2013  00055E  EFB3  F002         	goto	i2u19_40
  2014  000562                     i2u19_41:
  2015  000562  EFB8  F002         	goto	i2l1118
  2016  000566                     i2u19_40:
  2017  000566                     
  2018                           ;source_headers/main.c: 51:         adcon_flag = 1 ;
  2019  000566  0E00               	movlw	0
  2020  000568  6E10               	movwf	(_adcon_flag+1)^0,c
  2021  00056A  0E01               	movlw	1
  2022  00056C  6E0F               	movwf	_adcon_flag^0,c
  2023  00056E                     
  2024                           ;source_headers/main.c: 52:         ADIF = 0 ;
  2025  00056E  9C9E               	bcf	3998,6,c	;volatile
  2026  000570                     i2l1118:
  2027                           
  2028                           ;source_headers/main.c: 54:     if(TMR0IF == 1){
  2029  000570  A4F2               	btfss	4082,2,c	;volatile
  2030  000572  EFBD  F002         	goto	i2u20_41
  2031  000576  EFBF  F002         	goto	i2u20_40
  2032  00057A                     i2u20_41:
  2033  00057A  EFDA  F002         	goto	i2l1130
  2034  00057E                     i2u20_40:
  2035  00057E                     
  2036                           ;source_headers/main.c: 56:         s5_flag = 1;
  2037  00057E  0E00               	movlw	0
  2038  000580  6E02               	movwf	(_s5_flag+1)^0,c
  2039  000582  0E01               	movlw	1
  2040  000584  6E01               	movwf	_s5_flag^0,c
  2041  000586                     
  2042                           ;source_headers/main.c: 58:         timer0_counter--;
  2043  000586  0629               	decf	_timer0_counter^0,f,c
  2044  000588  A0D8               	btfss	status,0,c
  2045  00058A  062A               	decf	(_timer0_counter+1)^0,f,c
  2046  00058C                     
  2047                           ;source_headers/main.c: 59:         if(timer0_counter == 0){
  2048  00058C  5029               	movf	_timer0_counter^0,w,c
  2049  00058E  102A               	iorwf	(_timer0_counter+1)^0,w,c
  2050  000590  A4D8               	btfss	status,2,c
  2051  000592  EFCD  F002         	goto	i2u21_41
  2052  000596  EFCF  F002         	goto	i2u21_40
  2053  00059A                     i2u21_41:
  2054  00059A  EFD7  F002         	goto	i2l191
  2055  00059E                     i2u21_40:
  2056  00059E                     
  2057                           ;source_headers/main.c: 60:             timer0_flag = 1;
  2058  00059E  0E00               	movlw	0
  2059  0005A0  6E16               	movwf	(_timer0_flag+1)^0,c
  2060  0005A2  0E01               	movlw	1
  2061  0005A4  6E15               	movwf	_timer0_flag^0,c
  2062                           
  2063                           ;source_headers/main.c: 61:             timer0_counter = 10;
  2064  0005A6  0E00               	movlw	0
  2065  0005A8  6E2A               	movwf	(_timer0_counter+1)^0,c
  2066  0005AA  0E0A               	movlw	10
  2067  0005AC  6E29               	movwf	_timer0_counter^0,c
  2068  0005AE                     i2l191:
  2069                           
  2070                           ;source_headers/main.c: 63:         TMR0L = 61;
  2071  0005AE  0E3D               	movlw	61
  2072  0005B0  6ED6               	movwf	214,c	;volatile
  2073  0005B2                     
  2074                           ;source_headers/main.c: 64:         TMR0IF = 0;
  2075  0005B2  94F2               	bcf	4082,2,c	;volatile
  2076  0005B4                     i2l1130:
  2077                           
  2078                           ;source_headers/main.c: 66:     if(TMR1IF == 1){
  2079  0005B4  A09E               	btfss	3998,0,c	;volatile
  2080  0005B6  EFDF  F002         	goto	i2u22_41
  2081  0005BA  EFE1  F002         	goto	i2u22_40
  2082  0005BE                     i2u22_41:
  2083  0005BE  EFFA  F002         	goto	i2l1140
  2084  0005C2                     i2u22_40:
  2085  0005C2                     
  2086                           ;source_headers/main.c: 68:         timer1_counter--;
  2087  0005C2  0627               	decf	_timer1_counter^0,f,c
  2088  0005C4  A0D8               	btfss	status,0,c
  2089  0005C6  0628               	decf	(_timer1_counter+1)^0,f,c
  2090  0005C8                     
  2091                           ;source_headers/main.c: 69:         if(timer1_counter == 0){
  2092  0005C8  5027               	movf	_timer1_counter^0,w,c
  2093  0005CA  1028               	iorwf	(_timer1_counter+1)^0,w,c
  2094  0005CC  A4D8               	btfss	status,2,c
  2095  0005CE  EFEB  F002         	goto	i2u23_41
  2096  0005D2  EFED  F002         	goto	i2u23_40
  2097  0005D6                     i2u23_41:
  2098  0005D6  EFF5  F002         	goto	i2l193
  2099  0005DA                     i2u23_40:
  2100  0005DA                     
  2101                           ;source_headers/main.c: 70:             end_game_flag = 1;
  2102  0005DA  0E00               	movlw	0
  2103  0005DC  6E14               	movwf	(_end_game_flag+1)^0,c
  2104  0005DE  0E01               	movlw	1
  2105  0005E0  6E13               	movwf	_end_game_flag^0,c
  2106                           
  2107                           ;source_headers/main.c: 71:             timer1_counter = 125;
  2108  0005E2  0E00               	movlw	0
  2109  0005E4  6E28               	movwf	(_timer1_counter+1)^0,c
  2110  0005E6  0E7D               	movlw	125
  2111  0005E8  6E27               	movwf	_timer1_counter^0,c
  2112  0005EA                     i2l193:
  2113                           
  2114                           ;source_headers/main.c: 73:         TMR1 = 15536;
  2115  0005EA  0E3C               	movlw	60
  2116  0005EC  6ECF               	movwf	207,c	;volatile
  2117  0005EE  0EB0               	movlw	176
  2118  0005F0  6ECE               	movwf	206,c	;volatile
  2119  0005F2                     
  2120                           ;source_headers/main.c: 74:         TMR1IF = 0;
  2121  0005F2  909E               	bcf	3998,0,c	;volatile
  2122  0005F4                     i2l1140:
  2123                           
  2124                           ;source_headers/main.c: 76:     if(RBIF == 1){
  2125  0005F4  A0F2               	btfss	4082,0,c	;volatile
  2126  0005F6  EFFF  F002         	goto	i2u24_41
  2127  0005FA  EF01  F003         	goto	i2u24_40
  2128  0005FE                     i2u24_41:
  2129  0005FE  EF07  F003         	goto	i2l195
  2130  000602                     i2u24_40:
  2131  000602                     
  2132                           ;source_headers/main.c: 78:         rb_flag = 1;
  2133  000602  0E00               	movlw	0
  2134  000604  6E0E               	movwf	(_rb_flag+1)^0,c
  2135  000606  0E01               	movlw	1
  2136  000608  6E0D               	movwf	_rb_flag^0,c
  2137  00060A                     
  2138                           ;source_headers/main.c: 80:         PORTB;
  2139  00060A  5081               	movf	129,w,c	;volatile
  2140  00060C                     
  2141                           ;source_headers/main.c: 81:         RBIF = 0;
  2142  00060C  90F2               	bcf	4082,0,c	;volatile
  2143  00060E                     i2l195:
  2144  00060E  922C               	bcf	int$flags,1,c	;clear compiler interrupt flag (level 2)
  2145  000610  0011               	retfie		f
  2146  000612                     __end_of_ISR:
  2147                           	callstack 0
  2148  0000                     
  2149                           	psect	rparam
  2150  0000                     
  2151                           	psect	temp
  2152  00002C                     btemp:
  2153                           	callstack 0
  2154  00002C                     	ds	1
  2155  0000                     int$flags	set	btemp
  2156  0000                     wtemp8	set	btemp+1
  2157  0000                     ttemp5	set	btemp+1
  2158  0000                     ttemp6	set	btemp+4
  2159  0000                     ttemp7	set	btemp+8
  2160                           
  2161                           	psect	idloc
  2162                           
  2163                           ;Config register IDLOC0 @ 0x200000
  2164                           ;	unspecified, using default values
  2165  200000                     	org	2097152
  2166  200000  FF                 	db	255
  2167                           
  2168                           ;Config register IDLOC1 @ 0x200001
  2169                           ;	unspecified, using default values
  2170  200001                     	org	2097153
  2171  200001  FF                 	db	255
  2172                           
  2173                           ;Config register IDLOC2 @ 0x200002
  2174                           ;	unspecified, using default values
  2175  200002                     	org	2097154
  2176  200002  FF                 	db	255
  2177                           
  2178                           ;Config register IDLOC3 @ 0x200003
  2179                           ;	unspecified, using default values
  2180  200003                     	org	2097155
  2181  200003  FF                 	db	255
  2182                           
  2183                           ;Config register IDLOC4 @ 0x200004
  2184                           ;	unspecified, using default values
  2185  200004                     	org	2097156
  2186  200004  FF                 	db	255
  2187                           
  2188                           ;Config register IDLOC5 @ 0x200005
  2189                           ;	unspecified, using default values
  2190  200005                     	org	2097157
  2191  200005  FF                 	db	255
  2192                           
  2193                           ;Config register IDLOC6 @ 0x200006
  2194                           ;	unspecified, using default values
  2195  200006                     	org	2097158
  2196  200006  FF                 	db	255
  2197                           
  2198                           ;Config register IDLOC7 @ 0x200007
  2199                           ;	unspecified, using default values
  2200  200007                     	org	2097159
  2201  200007  FF                 	db	255
  2202                           
  2203                           	psect	config
  2204                           
  2205                           ; Padding undefined space
  2206  300000                     	org	3145728
  2207  300000  FF                 	db	255
  2208                           
  2209                           ;Config register CONFIG1H @ 0x300001
  2210                           ;	Oscillator Selection bits
  2211                           ;	OSC = HSPLL, HS oscillator, PLL enabled (Clock Frequency = 4 x FOSC1)
  2212                           ;	Fail-Safe Clock Monitor Enable bit
  2213                           ;	FCMEN = OFF, Fail-Safe Clock Monitor disabled
  2214                           ;	Internal/External Oscillator Switchover bit
  2215                           ;	IESO = OFF, Two-Speed Start-up disabled
  2216  300001                     	org	3145729
  2217  300001  06                 	db	6
  2218                           
  2219                           ;Config register CONFIG2L @ 0x300002
  2220                           ;	Power-up Timer Enable bit
  2221                           ;	PWRT = OFF, PWRT disabled
  2222                           ;	Brown-out Reset Enable bits
  2223                           ;	BOREN = OFF, Brown-out Reset disabled in hardware and software
  2224                           ;	Brown-out Voltage bits
  2225                           ;	BORV = 0x3, unprogrammed default
  2226  300002                     	org	3145730
  2227  300002  19                 	db	25
  2228                           
  2229                           ;Config register CONFIG2H @ 0x300003
  2230                           ;	Watchdog Timer
  2231                           ;	WDT = OFF, WDT disabled (control is placed on the SWDTEN bit)
  2232                           ;	Watchdog Timer Postscale Select bits
  2233                           ;	WDTPS = 0xF, unprogrammed default
  2234  300003                     	org	3145731
  2235  300003  1E                 	db	30
  2236                           
  2237                           ;Config register CONFIG3L @ 0x300004
  2238                           ;	unspecified, using default values
  2239                           ;	Processor Data Memory Mode Select bits
  2240                           ;	MODE = 0x3, unprogrammed default
  2241                           ;	Address Bus Width Select bits
  2242                           ;	ADDRBW = 0x3, unprogrammed default
  2243                           ;	Data Bus Width Select bit
  2244                           ;	DATABW = 0x1, unprogrammed default
  2245                           ;	External Bus Data Wait Enable bit
  2246                           ;	WAIT = 0x1, unprogrammed default
  2247  300004                     	org	3145732
  2248  300004  F3                 	db	243
  2249                           
  2250                           ;Config register CONFIG3H @ 0x300005
  2251                           ;	CCP2 MUX bit
  2252                           ;	CCP2MX = 0x1, unprogrammed default
  2253                           ;	ECCP MUX bit
  2254                           ;	ECCPMX = 0x1, unprogrammed default
  2255                           ;	Low-Power Timer1 Oscillator Enable bit
  2256                           ;	LPT1OSC = OFF, Timer1 configured for higher power operation
  2257                           ;	MCLR Pin Enable bit
  2258                           ;	MCLRE = ON, MCLR pin enabled; RG5 input pin disabled
  2259  300005                     	org	3145733
  2260  300005  83                 	db	131
  2261                           
  2262                           ;Config register CONFIG4L @ 0x300006
  2263                           ;	Stack Full/Underflow Reset Enable bit
  2264                           ;	STVREN = 0x1, unprogrammed default
  2265                           ;	Single-Supply ICSP Enable bit
  2266                           ;	LVP = OFF, Single-Supply ICSP disabled
  2267                           ;	Boot Block Size Select bits
  2268                           ;	BBSIZ = 0x0, unprogrammed default
  2269                           ;	Extended Instruction Set Enable bit
  2270                           ;	XINST = OFF, Instruction set extension and Indexed Addressing mode disabled (Legacy mo
      +                          de)
  2271                           ;	Background Debugger Enable bit
  2272                           ;	DEBUG = OFF, Background debugger disabled, RB6 and RB7 configured as general purpose I
      +                          /O pins
  2273  300006                     	org	3145734
  2274  300006  81                 	db	129
  2275                           
  2276                           ; Padding undefined space
  2277  300007                     	org	3145735
  2278  300007  FF                 	db	255
  2279                           
  2280                           ;Config register CONFIG5L @ 0x300008
  2281                           ;	unspecified, using default values
  2282                           ;	Code Protection bit Block 0
  2283                           ;	CP0 = 0x1, unprogrammed default
  2284                           ;	Code Protection bit Block 1
  2285                           ;	CP1 = 0x1, unprogrammed default
  2286                           ;	Code Protection bit Block 2
  2287                           ;	CP2 = 0x1, unprogrammed default
  2288                           ;	Code Protection bit Block 3
  2289                           ;	CP3 = 0x1, unprogrammed default
  2290                           ;	Code Protection bit Block 4
  2291                           ;	CP4 = 0x1, unprogrammed default
  2292                           ;	Code Protection bit Block 5
  2293                           ;	CP5 = 0x1, unprogrammed default
  2294                           ;	Code Protection bit Block 6
  2295                           ;	CP6 = 0x1, unprogrammed default
  2296                           ;	Code Protection bit Block 7
  2297                           ;	CP7 = 0x1, unprogrammed default
  2298  300008                     	org	3145736
  2299  300008  FF                 	db	255
  2300                           
  2301                           ;Config register CONFIG5H @ 0x300009
  2302                           ;	unspecified, using default values
  2303                           ;	Boot Block Code Protection bit
  2304                           ;	CPB = 0x1, unprogrammed default
  2305                           ;	Data EEPROM Code Protection bit
  2306                           ;	CPD = 0x1, unprogrammed default
  2307  300009                     	org	3145737
  2308  300009  C0                 	db	192
  2309                           
  2310                           ;Config register CONFIG6L @ 0x30000A
  2311                           ;	unspecified, using default values
  2312                           ;	Write Protection bit Block 0
  2313                           ;	WRT0 = 0x1, unprogrammed default
  2314                           ;	Write Protection bit Block 1
  2315                           ;	WRT1 = 0x1, unprogrammed default
  2316                           ;	Write Protection bit Block 2
  2317                           ;	WRT2 = 0x1, unprogrammed default
  2318                           ;	Write Protection bit Block 3
  2319                           ;	WRT3 = 0x1, unprogrammed default
  2320                           ;	Write Protection bit Block 4
  2321                           ;	WRT4 = 0x1, unprogrammed default
  2322                           ;	Write Protection bit Block 5
  2323                           ;	WRT5 = 0x1, unprogrammed default
  2324                           ;	Write Protection bit Block 6
  2325                           ;	WRT6 = 0x1, unprogrammed default
  2326                           ;	Write Protection bit Block 7
  2327                           ;	WRT7 = 0x1, unprogrammed default
  2328  30000A                     	org	3145738
  2329  30000A  FF                 	db	255
  2330                           
  2331                           ;Config register CONFIG6H @ 0x30000B
  2332                           ;	unspecified, using default values
  2333                           ;	Configuration Register Write Protection bit
  2334                           ;	WRTC = 0x1, unprogrammed default
  2335                           ;	Boot Block Write Protection bit
  2336                           ;	WRTB = 0x1, unprogrammed default
  2337                           ;	Data EEPROM Write Protection bit
  2338                           ;	WRTD = 0x1, unprogrammed default
  2339  30000B                     	org	3145739
  2340  30000B  E0                 	db	224
  2341                           
  2342                           ;Config register CONFIG7L @ 0x30000C
  2343                           ;	unspecified, using default values
  2344                           ;	Table Read Protection bit Block 0
  2345                           ;	EBTR0 = 0x1, unprogrammed default
  2346                           ;	Table Read Protection bit Block 1
  2347                           ;	EBTR1 = 0x1, unprogrammed default
  2348                           ;	Table Read Protection bit Block 2
  2349                           ;	EBTR2 = 0x1, unprogrammed default
  2350                           ;	Table Read Protection bit Block 3
  2351                           ;	EBTR3 = 0x1, unprogrammed default
  2352                           ;	Table Read Protection bit Block 4
  2353                           ;	EBTR4 = 0x1, unprogrammed default
  2354                           ;	Table Read Protection bit Block 5
  2355                           ;	EBTR5 = 0x1, unprogrammed default
  2356                           ;	Table Read Protection bit Block 6
  2357                           ;	EBTR6 = 0x1, unprogrammed default
  2358                           ;	Table Read Protection bit Block 7
  2359                           ;	EBTR7 = 0x1, unprogrammed default
  2360  30000C                     	org	3145740
  2361  30000C  FF                 	db	255
  2362                           
  2363                           ;Config register CONFIG7H @ 0x30000D
  2364                           ;	unspecified, using default values
  2365                           ;	Boot Block Table Read Protection bit
  2366                           ;	EBTRB = 0x1, unprogrammed default
  2367  30000D                     	org	3145741
  2368  30000D  40                 	db	64
  2369                           tosu	equ	0xFFF
  2370                           tosh	equ	0xFFE
  2371                           tosl	equ	0xFFD
  2372                           stkptr	equ	0xFFC
  2373                           pclatu	equ	0xFFB
  2374                           pclath	equ	0xFFA
  2375                           pcl	equ	0xFF9
  2376                           tblptru	equ	0xFF8
  2377                           tblptrh	equ	0xFF7
  2378                           tblptrl	equ	0xFF6
  2379                           tablat	equ	0xFF5
  2380                           prodh	equ	0xFF4
  2381                           prodl	equ	0xFF3
  2382                           indf0	equ	0xFEF
  2383                           postinc0	equ	0xFEE
  2384                           postdec0	equ	0xFED
  2385                           preinc0	equ	0xFEC
  2386                           plusw0	equ	0xFEB
  2387                           fsr0h	equ	0xFEA
  2388                           fsr0l	equ	0xFE9
  2389                           wreg	equ	0xFE8
  2390                           indf1	equ	0xFE7
  2391                           postinc1	equ	0xFE6
  2392                           postdec1	equ	0xFE5
  2393                           preinc1	equ	0xFE4
  2394                           plusw1	equ	0xFE3
  2395                           fsr1h	equ	0xFE2
  2396                           fsr1l	equ	0xFE1
  2397                           bsr	equ	0xFE0
  2398                           indf2	equ	0xFDF
  2399                           postinc2	equ	0xFDE
  2400                           postdec2	equ	0xFDD
  2401                           preinc2	equ	0xFDC
  2402                           plusw2	equ	0xFDB
  2403                           fsr2h	equ	0xFDA
  2404                           fsr2l	equ	0xFD9
  2405                           status	equ	0xFD8

Data Sizes:
    Strings     0
    Constant    0
    Data        1
    BSS         24
    Persistent  4
    Stack       0

Auto Spaces:
    Space          Size  Autos    Used
    COMRAM           94     14      43
    BANK0           160      0       0
    BANK1           256      0       0
    BANK2           256      0       0
    BANK3           256      0       0
    BANK4           256      0       0
    BANK5           256      0       0
    BANK6           256      0       0
    BANK7           256      0       0
    BANK8           256      0       0
    BANK9           256      0       0
    BANK10          256      0       0
    BANK11          256      0       0
    BANK12          256      0       0
    BANK13          256      0       0
    BANK14          256      0       0
    BANK15           96      0       0

Pointer List with Targets:

    None.

Critical Paths under _main in COMRAM

    _main->___awdiv

Critical Paths under _ISR in COMRAM

    None.

Critical Paths under _main in BANK0

    None.

Critical Paths under _ISR in BANK0

    None.

Critical Paths under _main in BANK1

    None.

Critical Paths under _ISR in BANK1

    None.

Critical Paths under _main in BANK2

    None.

Critical Paths under _ISR in BANK2

    None.

Critical Paths under _main in BANK3

    None.

Critical Paths under _ISR in BANK3

    None.

Critical Paths under _main in BANK4

    None.

Critical Paths under _ISR in BANK4

    None.

Critical Paths under _main in BANK5

    None.

Critical Paths under _ISR in BANK5

    None.

Critical Paths under _main in BANK6

    None.

Critical Paths under _ISR in BANK6

    None.

Critical Paths under _main in BANK7

    None.

Critical Paths under _ISR in BANK7

    None.

Critical Paths under _main in BANK8

    None.

Critical Paths under _ISR in BANK8

    None.

Critical Paths under _main in BANK9

    None.

Critical Paths under _ISR in BANK9

    None.

Critical Paths under _main in BANK10

    None.

Critical Paths under _ISR in BANK10

    None.

Critical Paths under _main in BANK11

    None.

Critical Paths under _ISR in BANK11

    None.

Critical Paths under _main in BANK12

    None.

Critical Paths under _ISR in BANK12

    None.

Critical Paths under _main in BANK13

    None.

Critical Paths under _ISR in BANK13

    None.

Critical Paths under _main in BANK14

    None.

Critical Paths under _ISR in BANK14

    None.

Critical Paths under _main in BANK15

    None.

Critical Paths under _ISR in BANK15

    None.

Call Graph Tables:

 ---------------------------------------------------------------------------------
 (Depth) Function   	        Calls       Base Space   Used Autos Params    Refs
 ---------------------------------------------------------------------------------
 (0) _main                                                 6     6      0     790
                                              8 COMRAM     6     6      0
                            _EndGame
                               _Init
                            _Restart
                     _Update7Segment
                         _UpdateLeds
                            ___awdiv
                       _adc_complete
                      _correct_guess
                          _game_over
                          _hs_passed
                             _mapADC
                        _rb4_handled
                     _special_number
 ---------------------------------------------------------------------------------
 (1) _special_number                                       0     0      0       0
 ---------------------------------------------------------------------------------
 (1) _rb4_handled                                          0     0      0       0
 ---------------------------------------------------------------------------------
 (1) _mapADC                                               2     0      2       0
                                              0 COMRAM     2     0      2
 ---------------------------------------------------------------------------------
 (1) _hs_passed                                            0     0      0       0
 ---------------------------------------------------------------------------------
 (1) _game_over                                            0     0      0       0
 ---------------------------------------------------------------------------------
 (1) _correct_guess                                        0     0      0       0
 ---------------------------------------------------------------------------------
 (1) _adc_complete                                         0     0      0       0
 ---------------------------------------------------------------------------------
 (1) ___awdiv                                              8     4      4     452
                                              0 COMRAM     8     4      4
 ---------------------------------------------------------------------------------
 (1) _UpdateLeds                                           2     0      2     196
                                              0 COMRAM     2     0      2
             _latcde_update_complete
 ---------------------------------------------------------------------------------
 (2) _latcde_update_complete                               0     0      0       0
 ---------------------------------------------------------------------------------
 (1) _Update7Segment                                       4     2      2      98
                                              0 COMRAM     4     2      2
              _latjh_update_complete
 ---------------------------------------------------------------------------------
 (2) _latjh_update_complete                                0     0      0       0
 ---------------------------------------------------------------------------------
 (1) _Restart                                              0     0      0       0
                            _restart
 ---------------------------------------------------------------------------------
 (2) _restart                                              0     0      0       0
 ---------------------------------------------------------------------------------
 (1) _Init                                                 0     0      0       0
                      _init_complete
 ---------------------------------------------------------------------------------
 (2) _init_complete                                        0     0      0       0
 ---------------------------------------------------------------------------------
 (1) _EndGame                                              0     0      0       0
 ---------------------------------------------------------------------------------
 Estimated maximum stack depth 2
 ---------------------------------------------------------------------------------
 (Depth) Function   	        Calls       Base Space   Used Autos Params    Refs
 ---------------------------------------------------------------------------------
 (3) _ISR                                                  0     0      0       0
 ---------------------------------------------------------------------------------
 Estimated maximum stack depth 3
 ---------------------------------------------------------------------------------

 Call Graph Graphs:

 _main (ROOT)
   _EndGame
   _Init
     _init_complete
   _Restart
     _restart
   _Update7Segment
     _latjh_update_complete
   _UpdateLeds
     _latcde_update_complete
   ___awdiv
   _adc_complete
   _correct_guess
   _game_over
   _hs_passed
   _mapADC
   _rb4_handled
   _special_number

 _ISR (ROOT)

 Address spaces:
Name               Size   Autos  Total    Cost      Usage
BIGRAM             F5F      0       0      37        0.0%
EEDATA             400      0       0       0        0.0%
BITBANK14          100      0       0      33        0.0%
BANK14             100      0       0      34        0.0%
BITBANK13          100      0       0      30        0.0%
BANK13             100      0       0      31        0.0%
BITBANK12          100      0       0      28        0.0%
BANK12             100      0       0      29        0.0%
BITBANK11          100      0       0      26        0.0%
BANK11             100      0       0      27        0.0%
BITBANK10          100      0       0      24        0.0%
BANK10             100      0       0      25        0.0%
BITBANK9           100      0       0      22        0.0%
BANK9              100      0       0      23        0.0%
BITBANK8           100      0       0      20        0.0%
BANK8              100      0       0      21        0.0%
BITBANK7           100      0       0      18        0.0%
BANK7              100      0       0      19        0.0%
BITBANK6           100      0       0      16        0.0%
BANK6              100      0       0      17        0.0%
BITBANK5           100      0       0      14        0.0%
BANK5              100      0       0      15        0.0%
BITBANK4           100      0       0      12        0.0%
BANK4              100      0       0      13        0.0%
BITBANK3           100      0       0      10        0.0%
BANK3              100      0       0      11        0.0%
BITBANK2           100      0       0       8        0.0%
BANK2              100      0       0       9        0.0%
BITBANK1           100      0       0       6        0.0%
BANK1              100      0       0       7        0.0%
BITBANK0            A0      0       0       4        0.0%
BANK0               A0      0       0       5        0.0%
BITBANK15           60      0       0      35        0.0%
BANK15              60      0       0      36        0.0%
BITCOMRAM           5E      0       0       0        0.0%
COMRAM              5E      E      2B       1       45.7%
BITSFR               0      0       0     200        0.0%
SFR                  0      0       0     200        0.0%
STACK                0      0       0       2        0.0%
NULL                 0      0       0       0        0.0%
ABS                  0      0      2B      32        0.0%
DATA                 0      0      2B       3        0.0%
CODE                 0      0       0       0        0.0%


Microchip Technology PIC18 Macro Assembler V2.20 build 20200408173844 
Symbol Table                                                                                   Sun May 31 16:38:52 2020

                              l7 0720                               l10 0718  
                             l13 0710                               l22 0716  
                             l31 071E                               l16 071C  
                             l25 0712                               l34 070E  
                             l19 071A                               l28 0714  
                   ___awdiv@sign 001E                              l203 048A  
                            l220 06DC                              l213 0490  
                            l223 0722                              l226 070A  
                            l218 06C8                              l166 03C6  
                            l179 03C6                              l198 067A  
                            l484 0554                              l926 070C  
                            _GIE 007F97                              u400 02A8  
                            u401 02A4                              u410 02D0  
                            u411 02CC                              u500 04A4  
                            u420 02F6                              u501 04A0  
                            u421 02F2                              u510 04BE  
                            u430 031E                              u511 04BA  
                            u431 031A                              u520 04E4  
                            u440 0346                              u521 04E0  
                            u441 0342                              u530 0502  
                            u450 036E                              u610 010A  
                            u531 04FE                              u451 036A  
                            u611 0106                              u540 051E  
                            u460 0396                              u380 0258  
                            u620 0124                              _ISR 0008  
                            u541 051A                              u461 0392  
                            u381 0254                              u621 0120  
                            u605 00C0                              u550 0544  
                            u470 03BA                              u390 0280  
                            u630 0136                              u551 0540  
                            u471 03B6                              u391 027C  
                            u631 0132                              u480 068E  
                            u640 016C                              u560 0028  
                            u481 068A                              u641 0168  
                            u561 0024                              u490 06B4  
                            u650 0182                              u570 004A  
                            u491 06B0                              u651 017E  
                            u571 0046                              u660 01B8  
                            u580 0068                              u661 01B4  
                            u581 0064                              u670 01EA  
                            u590 008E                              u671 01E6  
                            u591 008A                              u680 0220  
                            u681 021C                              wreg 000FE8  
                           ?_ISR 0019            __size_of_adc_complete 0002  
                           l1010 062E                             l1020 0674  
                           l1012 064C                             l1022 0676  
                           l1014 065A                             l1016 0670  
                           l1008 0612                             l1018 0672  
                           l1300 03A2                             l1310 03D6  
                           l1302 03BA                             l1230 0258  
                           l1320 03FE                             l1312 03DE  
                           l1400 0032                             l1066 0706  
                           l1322 0406                             l1314 03E6  
                           l1330 041E                             l1306 03C8  
                           l1410 0056                             l1402 0034  
                           l1332 048C                             l1324 040E  
                           l1316 03EE                             l1308 03CE  
                           l1340 068E                             l1260 02DC  
                           l1252 02B4                             l1244 028C  
                           l1236 0264                             l1228 023C  
                           l1412 0068                             l1420 007C  
                           l1404 0038                             l1326 0416  
                           l1318 03F6                             l1342 06A2  
                           l1350 0496                             l1270 031E  
                           l1262 02F6                             l1254 02D0  
                           l1246 02A8                             l1238 0280  
                           l1422 008E                             l1430 00F8  
                           l1414 0070                             l1406 004A  
                           l1344 06B4                             l1360 04C6  
                           l1352 04A4                             l1440 0152  
                           l1432 010A                             l1424 0096  
                           l1416 0074                             l1408 0052  
                           l1346 06D8                             l1338 067C  
                           l1370 04F4                             l1362 04CA  
                           l1354 04AC                             l1450 019E  
                           l1434 0112                             l1442 015A  
                           l1426 00E0                             l1418 0078  
                           l1380 0528                             l1372 0502  
                           l1364 04D2                             l1356 04B0  
                           l1348 0492                             l1292 037A  
                           l1284 0352                             l1276 032A  
                           l1268 0302                             l1460 01EA  
                           l1444 016C                             l1452 01A6  
                           l1436 0124                             l1428 00EC  
                           l1382 052E                             l1374 0508  
                           l1366 04E4                             l1358 04BE  
                           l1294 0396                             l1286 036E  
                           l1278 0346                             l1462 01FA  
                           l1454 01B8                             l1446 0174  
                           l1438 0136                             l1472 0434  
                           l1376 051E                             l1368 04EC  
                           l1384 0534                             l1464 0220  
                           l1456 01C0                             l1448 0182  
                           l1392 0012                             l1386 0544  
                           l1378 0526                             l1466 0230  
                           l1458 01C4                             l1394 0016  
                           l1388 054C                             l1396 0028  
                           l1398 0030                             _ADIE 007CEE  
                           _ADIF 007CF6                             _ADON 007E10  
                           _LATJ 000F91                             _RBIE 007F93  
                           _RBIF 007F90                             _TMR0 000FD6  
                           _TMR1 000FCE                             _Init 0612  
                           _main 0012                             btemp 002C  
                           start 000E                  __end_of_EndGame 0724  
                   ___param_bank 000000                            ??_ISR 0019  
                __end_of_Restart 070C                            ?_Init 0019  
                          ?_main 0019                  __end_of___awdiv 0556  
                  _correct_guess 0716                            _T0CON 000FD5  
                ___awdiv@divisor 001B                            _T1CON 000FCD  
                          _LATC1 007C59                            _LATD0 007C60  
                          _LATC2 007C5A                            _LATB4 007C54  
                          _LATD1 007C61                            _LATD2 007C62  
                          _LATD3 007C63                            _LATE1 007C69  
                          _LATE2 007C6A             __size_of_rb4_handled 0002  
                          _LATH0 007C80                            i2l191 05AE  
                          i2l193 05EA                            i2l195 060E  
                ___awdiv@counter 001D                     _adc_complete 0718  
                          _TMR0L 000FD6                            _PORTB 000F81  
                          _TRISB 000F93                            _TRISC 000F94  
                          _TRISD 000F95                            _TRISE 000F96  
                          _TRISH 000F99                            _TRISJ 000F9A  
               ??_special_number 0019          ?_latcde_update_complete 0019  
                          tablat 000FF5                  __end_of_restart 0720  
                          ttemp5 002D                            ttemp6 0030  
                          ttemp7 0034                            status 000FD8  
                          wtemp8 002D                  __initialization 06DE  
                   __end_of_Init 067C                     __end_of_main 023C  
                         ??_Init 0019                   ?_correct_guess 0019  
                         ??_main 0021                    __activetblptr 000003  
 __end_of_latcde_update_complete 071C                           _ADCON0 000FC2  
                         _ADCON1 000FC1                           _ADCON2 000FC0  
                         _ADRESH 000FC4                           _ADRESL 000FC3  
               ___awdiv@dividend 0019                           _GODONE 007E11  
                         i2l1120 057E                           i2l1112 0558  
                         i2l1122 0586                           i2l1130 05B4  
                         i2l1114 0566                           i2l1132 05C2  
                         i2l1140 05F4                           i2l1124 058C  
                         i2l1116 056E                           i2l1142 0602  
                         i2l1134 05C8                           i2l1126 059E  
                         i2l1118 0570                           i2l1144 060A  
                         i2l1136 05DA                           i2l1128 05B2  
                         i2l1146 060C                           i2l1138 05F2  
                         _INTCON 000FF2                        ??_EndGame 0019  
                         _TMR0IE 007F95                           _TMR0IF 007F92  
                         _TMR1IE 007CE8                           _TMR1IF 007CF0  
                      ??_Restart 0019           __size_of_init_complete 0002  
                      ??___awdiv 001D                           _mapADC 023C  
                         clear_0 06F6                 ___awdiv@quotient 001F  
                   __pdataCOMRAM 002B                       _UpdateLeds 067C  
                         tblptrh 000FF7                           tblptrl 000FF6  
                         tblptru 000FF8            _latjh_update_complete 071C  
                      ??_restart 0019                       __accesstop 0060  
        __end_of__initialization 06FC                    ___rparam_used 000001  
                 __pcstackCOMRAM 0019                  ??_correct_guess 0019  
             __size_of_game_over 0002                       _adcon_flag 000F  
                  _init_complete 0720                       __pnvCOMRAM 0027  
             __size_of_hs_passed 0002                          ?_mapADC 0019  
                    ?_UpdateLeds 0019           ?_latjh_update_complete 0019  
                 ?_init_complete 0019                          i2u20_40 057E  
                        i2u20_41 057A                          i2u21_40 059E  
                        i2u21_41 059A                          i2u22_40 05C2  
                        i2u22_41 05BE                          i2u23_40 05DA  
                        i2u23_41 05D6                          i2u24_40 0602  
                        i2u24_41 05FE                          i2u19_40 0566  
                        i2u19_41 0562          __size_of_Update7Segment 00CA  
                        _EndGame 0722                __end_of_game_over 0716  
                        __Hparam 0000                          __Lparam 0000  
                        _Restart 0706                          _s5_flag 0001  
                        ___awdiv 0492                  __size_of_mapADC 018C  
                  ??_rb4_handled 0019                          __pcinit 06DE  
                        __ramtop 1000                          __ptext0 0012  
                        __ptext1 070C                          __ptext2 0710  
                        __ptext3 023C                          __ptext4 0712  
                        __ptext5 0714                          __ptext6 0716  
                        __ptext7 0718                          __ptext8 0492  
                        __ptext9 067C                __end_of_hs_passed 0714  
                   __size_of_ISR 060A                          _rb_flag 000D  
                        _restart 071E                          _special 002B  
                 __pintcode_body 0556   Update7Segment@value_to_display 0019  
           end_of_initialization 06FC                          int_func 0556  
            __size_of_UpdateLeds 0062                UpdateLeds@down_up 0019  
                        postinc0 000FEE                  ??_init_complete 0019  
            __end_of_rb4_handled 0712          __size_of_special_number 0004  
                 _timer0_counter 0029                   _timer1_counter 0027  
                 __end_of_mapADC 03C8                    __pidataCOMRAM 0724  
            start_initialization 06DE                      __end_of_ISR 0612  
                 _Update7Segment 03C8                     _mappedResult 0007  
                       ??_mapADC 001B                      _rb4_handled 0710  
          __end_of_correct_guess 0718          ??_latjh_update_complete 0019  
       ??_latcde_update_complete 0019                    ?_adc_complete 0019  
                   ??_UpdateLeds 001B                      __pbssCOMRAM 0001  
         __end_of_Update7Segment 0492                        _adc_value 0017  
               _convertedDecimal 0009                         ?_EndGame 0019  
                       ?_Restart 0019                        _isRb4High 0005  
                      _game_over 0714               __end_of_UpdateLeds 06DE  
                      __pintcode 0008                         ?___awdiv 0019  
                 ??_adc_complete 0019                  ?_Update7Segment 0019  
                       ?_restart 0019                        _hs_passed 0712  
                 _special_number 070C                       ?_game_over 0019  
                  _half_sec_flag 0011  __size_of_latcde_update_complete 0002  
                      main@guess 0025                       ?_hs_passed 0019  
         __end_of_special_number 0710                   _rb_stable_flag 000B  
               __size_of_EndGame 0002                    _end_game_flag 0013  
                       __Hrparam 0000                         __Lrparam 0000  
               __size_of_Restart 0006                 __size_of___awdiv 00C4  
        _wasRb4HighLastInterrupt 0003            __end_of_init_complete 0722  
                       __ptext10 071A                         __ptext11 03C8  
                       __ptext12 071C                         __ptext13 0706  
                       __ptext14 071E                         __ptext15 0612  
                       __ptext16 0720                         __ptext17 0722  
               __size_of_restart 0002                    __size_of_Init 006A  
         _latcde_update_complete 071A                  ?_special_number 0019  
                  __size_of_main 022A             __end_of_adc_complete 071A  
                    ??_game_over 0019                         int$flags 002C  
                   ?_rb4_handled 0019   __size_of_latjh_update_complete 0002  
  __end_of_latjh_update_complete 071E                      ??_hs_passed 0019  
                       intlevel2 0000                      _timer0_flag 0015  
               ??_Update7Segment 001B           __size_of_correct_guess 0002  
