

Microchip MPLAB XC8 Assembler V2.20 build 20200408173844 
                                                                                               Sun May 31 12:19:44 2020

Microchip MPLAB XC8 C Compiler v2.20 (Free license) build 20200408173844 Og1 
     1                           	processor	18F8722
     2                           	fnconf	rparam,??,?,0
     3                           	pagewidth 120
     4                           	opt	flic
     5                           	psect	idataCOMRAM,global,class=CODE,delta=1,noexec
     6                           	psect	nvCOMRAM,global,class=COMRAM,space=1,delta=1,lowdata,noexec
     7                           	psect	cinit,global,reloc=2,class=CODE,delta=1
     8                           	psect	bssCOMRAM,global,class=COMRAM,space=1,delta=1,lowdata,noexec
     9                           	psect	dataCOMRAM,global,class=COMRAM,space=1,delta=1,lowdata,noexec
    10                           	psect	cstackCOMRAM,global,class=COMRAM,space=1,delta=1,lowdata,noexec
    11                           	psect	text0,global,reloc=2,class=CODE,delta=1
    12                           	psect	text1,global,reloc=2,class=CODE,delta=1
    13                           	psect	text2,global,reloc=2,class=CODE,delta=1
    14                           	psect	text3,global,reloc=2,class=CODE,delta=1
    15                           	psect	text4,global,reloc=2,class=CODE,delta=1
    16                           	psect	text5,global,reloc=2,class=CODE,delta=1
    17                           	psect	text6,global,reloc=2,class=CODE,delta=1
    18                           	psect	text7,global,reloc=2,class=CODE,delta=1
    19                           	psect	text8,global,reloc=2,class=CODE,delta=1
    20                           	psect	intcode,global,reloc=2,class=CODE,delta=1
    21                           	psect	intcode_body,global,reloc=2,class=CODE,delta=1
    22                           	psect	intsave_regs,global,class=BIGRAM,space=1,delta=1,noexec
    23                           	psect	rparam,global,class=COMRAM,space=1,delta=1,noexec
    24                           	psect	temp,global,ovrld,common,class=COMRAM,space=1,delta=1
    25                           	psect	idloc,global,abs,ovrld,class=IDLOC,space=5,delta=1,noexec
    26                           	psect	config,global,abs,ovrld,class=CONFIG,space=4,delta=1,noexec
    27  0000                     
    28                           ; Version 2.20
    29                           ; Generated 12/02/2020 GMT
    30                           ; 
    31                           ; Copyright © 2020, Microchip Technology Inc. and its subsidiaries ("Microchip")
    32                           ; All rights reserved.
    33                           ; 
    34                           ; This software is developed by Microchip Technology Inc. and its subsidiaries ("Microch
      +                          ip").
    35                           ; 
    36                           ; Redistribution and use in source and binary forms, with or without modification, are
    37                           ; permitted provided that the following conditions are met:
    38                           ; 
    39                           ;     1. Redistributions of source code must retain the above copyright notice, this lis
      +                          t of
    40                           ;        conditions and the following disclaimer.
    41                           ; 
    42                           ;     2. Redistributions in binary form must reproduce the above copyright notice, this 
      +                          list
    43                           ;        of conditions and the following disclaimer in the documentation and/or other
    44                           ;        materials provided with the distribution.
    45                           ; 
    46                           ;     3. Microchip's name may not be used to endorse or promote products derived from th
      +                          is
    47                           ;        software without specific prior written permission.
    48                           ; 
    49                           ; THIS SOFTWARE IS PROVIDED BY MICROCHIP "AS IS" AND ANY EXPRESS OR IMPLIED WARRANTIES,
    50                           ; INCLUDING, BUT NOT LIMITED TO, THE IMPLIED WARRANTIES OF MERCHANTABILITY AND FITNESS F
      +                          OR
    51                           ; PURPOSE ARE DISCLAIMED.  IN NO EVENT SHALL MICROCHIP BE LIABLE FOR ANY DIRECT, INDIREC
      +                          T,
    52                           ; INCIDENTAL, SPECIAL, EXEMPLARY, OR CONSEQUENTIAL DAMAGES (INCLUDING BUT NOT LIMITED TO
    53                           ; PROCUREMENT OF SUBSTITUTE GOODS OR SERVICES; LOSS OF USE, DATA OR PROFITS; OR BUSINESS
    54                           ; INTERRUPTION) HOWSOEVER CAUSED AND ON ANY THEORY OF LIABILITY, WHETHER IN CONTRACT, ST
      +                          RICT
    55                           ; LIABILITY, OR TORT (INCLUDING NEGLIGENCE OR OTHERWISE) ARISING IN ANY WAY OUT OF THE U
      +                          SE OF
    56                           ; THIS SOFTWARE, EVEN IF ADVISED OF THE POSSIBILITY OF SUCH DAMAGE.
    57                           ; 
    58                           ; 
    59                           ; Code-generator required, PIC18F8722 Definitions
    60                           ; 
    61                           ; SFR Addresses
    62  0000                     
    63                           	psect	idataCOMRAM
    64  000248                     __pidataCOMRAM:
    65                           	callstack 0
    66                           
    67                           ;initializer for _special
    68  000248  04                 	db	4
    69                           
    70                           	psect	nvCOMRAM
    71  000011                     __pnvCOMRAM:
    72                           	callstack 0
    73  000011                     _timer0_counter:
    74                           	callstack 0
    75  000011                     	ds	2
    76  0000                     _TMR0	set	4054
    77  0000                     _LATJ	set	3985
    78  0000                     _ADCON2	set	4032
    79  0000                     _ADCON1	set	4033
    80  0000                     _ADCON0	set	4034
    81  0000                     _T0CON	set	4053
    82  0000                     _INTCON	set	4082
    83  0000                     _TMR0L	set	4054
    84  0000                     _LATE2	set	31850
    85  0000                     _LATC2	set	31834
    86  0000                     _LATE1	set	31849
    87  0000                     _LATC1	set	31833
    88  0000                     _LATD3	set	31843
    89  0000                     _LATD2	set	31842
    90  0000                     _LATD1	set	31841
    91  0000                     _LATD0	set	31840
    92  0000                     _LATH0	set	31872
    93  0000                     _ADON	set	32272
    94  0000                     _TMR0IF	set	32658
    95  0000                     _ADIF	set	31990
    96                           
    97                           ; #config settings
    98                           
    99                           	psect	cinit
   100  000214                     __pcinit:
   101                           	callstack 0
   102  000214                     start_initialization:
   103                           	callstack 0
   104  000214                     __initialization:
   105                           	callstack 0
   106                           
   107                           ; Initialize objects allocated to COMRAM (1 bytes)
   108                           ; load TBLPTR registers with __pidataCOMRAM
   109  000214  0E48               	movlw	low __pidataCOMRAM
   110  000216  6EF6               	movwf	tblptrl,c
   111  000218  0E02               	movlw	high __pidataCOMRAM
   112  00021A  6EF7               	movwf	tblptrh,c
   113  00021C  0E00               	movlw	low (__pidataCOMRAM shr (0+16))
   114  00021E  6EF8               	movwf	tblptru,c
   115  000220  0009               	tblrd		*+	;fetch initializer
   116  000222  CFF5 F013          	movff	tablat,__pdataCOMRAM
   117                           
   118                           ; Clear objects allocated to COMRAM (10 bytes)
   119  000226  EE00  F001         	lfsr	0,__pbssCOMRAM
   120  00022A  0E0A               	movlw	10
   121  00022C                     clear_0:
   122  00022C  6AEE               	clrf	postinc0,c
   123  00022E  06E8               	decf	wreg,f,c
   124  000230  E1FD               	bnz	clear_0
   125  000232                     end_of_initialization:
   126                           	callstack 0
   127  000232                     __end_of__initialization:
   128                           	callstack 0
   129  000232  9014               	bcf	int$flags,0,c	;clear compiler interrupt flag (level 1)
   130  000234  9214               	bcf	int$flags,1,c	;clear compiler interrupt flag (level 2)
   131  000236  0100               	movlb	0
   132  000238  EFCC  F000         	goto	_main	;jump to C main() function
   133                           
   134                           	psect	bssCOMRAM
   135  000001                     __pbssCOMRAM:
   136                           	callstack 0
   137  000001                     _rb_flag:
   138                           	callstack 0
   139  000001                     	ds	2
   140  000003                     _adcon_flag:
   141                           	callstack 0
   142  000003                     	ds	2
   143  000005                     _timer1_flag:
   144                           	callstack 0
   145  000005                     	ds	2
   146  000007                     _timer0_flag:
   147                           	callstack 0
   148  000007                     	ds	2
   149  000009                     _adc_value:
   150                           	callstack 0
   151  000009                     	ds	2
   152                           
   153                           	psect	dataCOMRAM
   154  000013                     __pdataCOMRAM:
   155                           	callstack 0
   156  000013                     _special:
   157                           	callstack 0
   158  000013                     	ds	1
   159                           
   160                           	psect	cstackCOMRAM
   161  00000B                     __pcstackCOMRAM:
   162                           	callstack 0
   163  00000B                     Update7Segment@value_to_display:
   164                           	callstack 0
   165  00000B                     UpdateLeds@down_up:
   166                           	callstack 0
   167                           
   168                           ; 2 bytes @ 0x0
   169  00000B                     	ds	2
   170  00000D                     ??_Update7Segment:
   171  00000D                     
   172                           ; 1 bytes @ 0x2
   173  00000D                     	ds	2
   174  00000F                     main@current_value:
   175                           	callstack 0
   176                           
   177                           ; 2 bytes @ 0x4
   178  00000F                     	ds	2
   179                           
   180 ;;
   181 ;;Main: autosize = 0, tempsize = 0, incstack = 0, save=0
   182 ;;
   183 ;; *************** function _main *****************
   184 ;; Defined at:
   185 ;;		line 142 in file "source_headers/main.c"
   186 ;; Parameters:    Size  Location     Type
   187 ;;		None
   188 ;; Auto vars:     Size  Location     Type
   189 ;;  guess           2    0        int 
   190 ;;  current_valu    2    4[COMRAM] int 
   191 ;; Return value:  Size  Location     Type
   192 ;;                  1    wreg      void 
   193 ;; Registers used:
   194 ;;		wreg, status,2, status,0, cstack
   195 ;; Tracked objects:
   196 ;;		On entry : 0/0
   197 ;;		On exit  : 0/0
   198 ;;		Unchanged: 0/0
   199 ;; Data sizes:     COMRAM   BANK0   BANK1   BANK2   BANK3   BANK4   BANK5   BANK6   BANK7   BANK8   BANK9  BANK10  BANK1
      +1  BANK12  BANK13  BANK14  BANK15
   200 ;;      Params:         0       0       0       0       0       0       0       0       0       0       0       0       
      +0       0       0       0       0
   201 ;;      Locals:         4       0       0       0       0       0       0       0       0       0       0       0       
      +0       0       0       0       0
   202 ;;      Temps:          0       0       0       0       0       0       0       0       0       0       0       0       
      +0       0       0       0       0
   203 ;;      Totals:         4       0       0       0       0       0       0       0       0       0       0       0       
      +0       0       0       0       0
   204 ;;Total ram usage:        4 bytes
   205 ;; Hardware stack levels required when called:    3
   206 ;; This function calls:
   207 ;;		_EndGame
   208 ;;		_Init
   209 ;;		_Restart
   210 ;;		_Update7Segment
   211 ;;		_UpdateLeds
   212 ;;		_special_number
   213 ;; This function is called by:
   214 ;;		Startup code after reset
   215 ;; This function uses a non-reentrant model
   216 ;;
   217                           
   218                           	psect	text0
   219  000198                     __ptext0:
   220                           	callstack 0
   221  000198                     _main:
   222                           	callstack 28
   223  000198                     
   224                           ;source_headers/main.c: 143:     Init();
   225  000198  ECF2  F000         	call	_Init	;wreg free
   226  00019C                     l959:
   227                           
   228                           ;source_headers/main.c: 146:         if (timer0_flag){
   229  00019C  5007               	movf	_timer0_flag^0,w,c
   230  00019E  1008               	iorwf	(_timer0_flag+1)^0,w,c
   231  0001A0  B4D8               	btfsc	status,2,c
   232  0001A2  EFD5  F000         	goto	u101
   233  0001A6  EFD7  F000         	goto	u100
   234  0001AA                     u101:
   235  0001AA  EFDB  F000         	goto	l965
   236  0001AE                     u100:
   237  0001AE                     
   238                           ;source_headers/main.c: 148:             timer0_flag = 0;
   239  0001AE  0E00               	movlw	0
   240  0001B0  6E08               	movwf	(_timer0_flag+1)^0,c
   241  0001B2  0E00               	movlw	0
   242  0001B4  6E07               	movwf	_timer0_flag^0,c
   243  0001B6                     l965:
   244                           
   245                           ;source_headers/main.c: 155:         if (adcon_flag){
   246  0001B6  5003               	movf	_adcon_flag^0,w,c
   247  0001B8  1004               	iorwf	(_adcon_flag+1)^0,w,c
   248  0001BA  B4D8               	btfsc	status,2,c
   249  0001BC  EFE2  F000         	goto	u111
   250  0001C0  EFE4  F000         	goto	u110
   251  0001C4                     u111:
   252  0001C4  EFCE  F000         	goto	l959
   253  0001C8                     u110:
   254  0001C8                     
   255                           ;source_headers/main.c: 157:             int current_value;;source_headers/main.c: 158: 
      +                                      Update7Segment(current_value);
   256  0001C8  C00F  F00B         	movff	main@current_value,Update7Segment@value_to_display
   257  0001CC  C010  F00C         	movff	main@current_value+1,Update7Segment@value_to_display+1
   258  0001D0  EC09  F000         	call	_Update7Segment	;wreg free
   259  0001D4                     
   260                           ;source_headers/main.c: 159:             adcon_flag = 0;
   261  0001D4  0E00               	movlw	0
   262  0001D6  6E04               	movwf	(_adcon_flag+1)^0,c
   263  0001D8  0E00               	movlw	0
   264  0001DA  6E03               	movwf	_adcon_flag^0,c
   265  0001DC  EFCE  F000         	goto	l959
   266  0001E0  EF07  F000         	goto	start
   267  0001E4                     __end_of_main:
   268                           	callstack 0
   269                           
   270 ;; *************** function _special_number *****************
   271 ;; Defined at:
   272 ;;		line 14 in file "source_headers/breakpoints.c"
   273 ;; Parameters:    Size  Location     Type
   274 ;;		None
   275 ;; Auto vars:     Size  Location     Type
   276 ;;		None
   277 ;; Return value:  Size  Location     Type
   278 ;;                  1    wreg      unsigned char 
   279 ;; Registers used:
   280 ;;		wreg, status,2
   281 ;; Tracked objects:
   282 ;;		On entry : 0/0
   283 ;;		On exit  : 0/0
   284 ;;		Unchanged: 0/0
   285 ;; Data sizes:     COMRAM   BANK0   BANK1   BANK2   BANK3   BANK4   BANK5   BANK6   BANK7   BANK8   BANK9  BANK10  BANK1
      +1  BANK12  BANK13  BANK14  BANK15
   286 ;;      Params:         0       0       0       0       0       0       0       0       0       0       0       0       
      +0       0       0       0       0
   287 ;;      Locals:         0       0       0       0       0       0       0       0       0       0       0       0       
      +0       0       0       0       0
   288 ;;      Temps:          0       0       0       0       0       0       0       0       0       0       0       0       
      +0       0       0       0       0
   289 ;;      Totals:         0       0       0       0       0       0       0       0       0       0       0       0       
      +0       0       0       0       0
   290 ;;Total ram usage:        0 bytes
   291 ;; Hardware stack levels used:    1
   292 ;; Hardware stack levels required when called:    1
   293 ;; This function calls:
   294 ;;		Nothing
   295 ;; This function is called by:
   296 ;;		_main
   297 ;; This function uses a non-reentrant model
   298 ;;
   299                           
   300                           	psect	text1
   301  00023C                     __ptext1:
   302                           	callstack 0
   303  00023C                     _special_number:
   304                           	callstack 29
   305  00023C  5013               	movf	_special^0,w,c	;volatile
   306  00023E  0012               	return		;funcret
   307  000240                     __end_of_special_number:
   308                           	callstack 0
   309                           
   310 ;; *************** function _UpdateLeds *****************
   311 ;; Defined at:
   312 ;;		line 92 in file "source_headers/main.c"
   313 ;; Parameters:    Size  Location     Type
   314 ;;  down_up         2    0[COMRAM] int 
   315 ;; Auto vars:     Size  Location     Type
   316 ;;		None
   317 ;; Return value:  Size  Location     Type
   318 ;;                  1    wreg      void 
   319 ;; Registers used:
   320 ;;		wreg, status,2, status,0, cstack
   321 ;; Tracked objects:
   322 ;;		On entry : 0/0
   323 ;;		On exit  : 0/0
   324 ;;		Unchanged: 0/0
   325 ;; Data sizes:     COMRAM   BANK0   BANK1   BANK2   BANK3   BANK4   BANK5   BANK6   BANK7   BANK8   BANK9  BANK10  BANK1
      +1  BANK12  BANK13  BANK14  BANK15
   326 ;;      Params:         2       0       0       0       0       0       0       0       0       0       0       0       
      +0       0       0       0       0
   327 ;;      Locals:         0       0       0       0       0       0       0       0       0       0       0       0       
      +0       0       0       0       0
   328 ;;      Temps:          0       0       0       0       0       0       0       0       0       0       0       0       
      +0       0       0       0       0
   329 ;;      Totals:         2       0       0       0       0       0       0       0       0       0       0       0       
      +0       0       0       0       0
   330 ;;Total ram usage:        2 bytes
   331 ;; Hardware stack levels used:    1
   332 ;; Hardware stack levels required when called:    2
   333 ;; This function calls:
   334 ;;		_latcde_update_complete
   335 ;; This function is called by:
   336 ;;		_main
   337 ;; This function uses a non-reentrant model
   338 ;;
   339                           
   340                           	psect	text2
   341  0000DC                     __ptext2:
   342                           	callstack 0
   343  0000DC                     _UpdateLeds:
   344                           	callstack 28
   345  0000DC                     
   346                           ;source_headers/main.c: 95:     if (down_up==0){
   347  0000DC  500B               	movf	UpdateLeds@down_up^0,w,c
   348  0000DE  100C               	iorwf	(UpdateLeds@down_up+1)^0,w,c
   349  0000E0  A4D8               	btfss	status,2,c
   350  0000E2  EF75  F000         	goto	u81
   351  0000E6  EF77  F000         	goto	u80
   352  0000EA                     u81:
   353  0000EA  EF81  F000         	goto	l951
   354  0000EE                     u80:
   355  0000EE                     
   356                           ;source_headers/main.c: 97:         LATD0=1;
   357  0000EE  808C               	bsf	3980,0,c	;volatile
   358                           
   359                           ;source_headers/main.c: 98:         LATD1=1;
   360  0000F0  828C               	bsf	3980,1,c	;volatile
   361                           
   362                           ;source_headers/main.c: 99:         LATD2=1;
   363  0000F2  848C               	bsf	3980,2,c	;volatile
   364                           
   365                           ;source_headers/main.c: 100:         LATD3=1;
   366  0000F4  868C               	bsf	3980,3,c	;volatile
   367                           
   368                           ;source_headers/main.c: 102:         LATC1=0;
   369  0000F6  928B               	bcf	3979,1,c	;volatile
   370                           
   371                           ;source_headers/main.c: 103:         LATE1=0;
   372  0000F8  928D               	bcf	3981,1,c	;volatile
   373                           
   374                           ;source_headers/main.c: 104:         LATC2=1;
   375  0000FA  848B               	bsf	3979,2,c	;volatile
   376                           
   377                           ;source_headers/main.c: 105:         LATE2=1;
   378  0000FC  848D               	bsf	3981,2,c	;volatile
   379                           
   380                           ;source_headers/main.c: 106:     }
   381  0000FE  EF9C  F000         	goto	l955
   382  000102                     l951:
   383  000102  040B               	decf	UpdateLeds@down_up^0,w,c
   384  000104  100C               	iorwf	(UpdateLeds@down_up+1)^0,w,c
   385  000106  A4D8               	btfss	status,2,c
   386  000108  EF88  F000         	goto	u91
   387  00010C  EF8A  F000         	goto	u90
   388  000110                     u91:
   389  000110  EF94  F000         	goto	l123
   390  000114                     u90:
   391  000114                     
   392                           ;source_headers/main.c: 109:         LATD0=1;
   393  000114  808C               	bsf	3980,0,c	;volatile
   394                           
   395                           ;source_headers/main.c: 110:         LATD1=1;
   396  000116  828C               	bsf	3980,1,c	;volatile
   397                           
   398                           ;source_headers/main.c: 111:         LATD2=1;
   399  000118  848C               	bsf	3980,2,c	;volatile
   400                           
   401                           ;source_headers/main.c: 112:         LATD3=1;
   402  00011A  868C               	bsf	3980,3,c	;volatile
   403                           
   404                           ;source_headers/main.c: 114:         LATC1=1;
   405  00011C  828B               	bsf	3979,1,c	;volatile
   406                           
   407                           ;source_headers/main.c: 115:         LATE1=1;
   408  00011E  828D               	bsf	3981,1,c	;volatile
   409                           
   410                           ;source_headers/main.c: 116:         LATC2=0;
   411  000120  948B               	bcf	3979,2,c	;volatile
   412                           
   413                           ;source_headers/main.c: 117:         LATE2=0;
   414  000122  948D               	bcf	3981,2,c	;volatile
   415                           
   416                           ;source_headers/main.c: 118:     }
   417  000124  EF9C  F000         	goto	l955
   418  000128                     l123:
   419                           
   420                           ;source_headers/main.c: 121:         LATD0=0;
   421  000128  908C               	bcf	3980,0,c	;volatile
   422                           
   423                           ;source_headers/main.c: 122:         LATD1=0;
   424  00012A  928C               	bcf	3980,1,c	;volatile
   425                           
   426                           ;source_headers/main.c: 123:         LATD2=0;
   427  00012C  948C               	bcf	3980,2,c	;volatile
   428                           
   429                           ;source_headers/main.c: 124:         LATD3=0;
   430  00012E  968C               	bcf	3980,3,c	;volatile
   431                           
   432                           ;source_headers/main.c: 126:         LATC1=0;
   433  000130  928B               	bcf	3979,1,c	;volatile
   434                           
   435                           ;source_headers/main.c: 127:         LATE1=0;
   436  000132  928D               	bcf	3981,1,c	;volatile
   437                           
   438                           ;source_headers/main.c: 128:         LATC2=0;
   439  000134  948B               	bcf	3979,2,c	;volatile
   440                           
   441                           ;source_headers/main.c: 129:         LATE2=0;
   442  000136  948D               	bcf	3981,2,c	;volatile
   443  000138                     l955:
   444                           
   445                           ;source_headers/main.c: 131:     latcde_update_complete();
   446  000138  EC20  F001         	call	_latcde_update_complete	;wreg free
   447  00013C  0012               	return		;funcret
   448  00013E                     __end_of_UpdateLeds:
   449                           	callstack 0
   450                           
   451 ;; *************** function _latcde_update_complete *****************
   452 ;; Defined at:
   453 ;;		line 9 in file "source_headers/breakpoints.c"
   454 ;; Parameters:    Size  Location     Type
   455 ;;		None
   456 ;; Auto vars:     Size  Location     Type
   457 ;;		None
   458 ;; Return value:  Size  Location     Type
   459 ;;                  1    wreg      void 
   460 ;; Registers used:
   461 ;;		None
   462 ;; Tracked objects:
   463 ;;		On entry : 0/0
   464 ;;		On exit  : 0/0
   465 ;;		Unchanged: 0/0
   466 ;; Data sizes:     COMRAM   BANK0   BANK1   BANK2   BANK3   BANK4   BANK5   BANK6   BANK7   BANK8   BANK9  BANK10  BANK1
      +1  BANK12  BANK13  BANK14  BANK15
   467 ;;      Params:         0       0       0       0       0       0       0       0       0       0       0       0       
      +0       0       0       0       0
   468 ;;      Locals:         0       0       0       0       0       0       0       0       0       0       0       0       
      +0       0       0       0       0
   469 ;;      Temps:          0       0       0       0       0       0       0       0       0       0       0       0       
      +0       0       0       0       0
   470 ;;      Totals:         0       0       0       0       0       0       0       0       0       0       0       0       
      +0       0       0       0       0
   471 ;;Total ram usage:        0 bytes
   472 ;; Hardware stack levels used:    1
   473 ;; Hardware stack levels required when called:    1
   474 ;; This function calls:
   475 ;;		Nothing
   476 ;; This function is called by:
   477 ;;		_UpdateLeds
   478 ;; This function uses a non-reentrant model
   479 ;;
   480                           
   481                           	psect	text3
   482  000240                     __ptext3:
   483                           	callstack 0
   484  000240                     _latcde_update_complete:
   485                           	callstack 28
   486  000240  0012               	return		;funcret
   487  000242                     __end_of_latcde_update_complete:
   488                           	callstack 0
   489                           
   490 ;; *************** function _Update7Segment *****************
   491 ;; Defined at:
   492 ;;		line 53 in file "source_headers/main.c"
   493 ;; Parameters:    Size  Location     Type
   494 ;;  value_to_dis    2    0[COMRAM] int 
   495 ;; Auto vars:     Size  Location     Type
   496 ;;		None
   497 ;; Return value:  Size  Location     Type
   498 ;;                  1    wreg      void 
   499 ;; Registers used:
   500 ;;		wreg, status,2, status,0, cstack
   501 ;; Tracked objects:
   502 ;;		On entry : 0/0
   503 ;;		On exit  : 0/0
   504 ;;		Unchanged: 0/0
   505 ;; Data sizes:     COMRAM   BANK0   BANK1   BANK2   BANK3   BANK4   BANK5   BANK6   BANK7   BANK8   BANK9  BANK10  BANK1
      +1  BANK12  BANK13  BANK14  BANK15
   506 ;;      Params:         2       0       0       0       0       0       0       0       0       0       0       0       
      +0       0       0       0       0
   507 ;;      Locals:         0       0       0       0       0       0       0       0       0       0       0       0       
      +0       0       0       0       0
   508 ;;      Temps:          2       0       0       0       0       0       0       0       0       0       0       0       
      +0       0       0       0       0
   509 ;;      Totals:         4       0       0       0       0       0       0       0       0       0       0       0       
      +0       0       0       0       0
   510 ;;Total ram usage:        4 bytes
   511 ;; Hardware stack levels used:    1
   512 ;; Hardware stack levels required when called:    2
   513 ;; This function calls:
   514 ;;		_latjh_update_complete
   515 ;; This function is called by:
   516 ;;		_main
   517 ;; This function uses a non-reentrant model
   518 ;;
   519                           
   520                           	psect	text4
   521  000012                     __ptext4:
   522                           	callstack 0
   523  000012                     _Update7Segment:
   524                           	callstack 28
   525  000012                     
   526                           ;source_headers/main.c: 55:     LATH0=1;
   527  000012  8090               	bsf	3984,0,c	;volatile
   528                           
   529                           ;source_headers/main.c: 56:     switch (value_to_display){
   530  000014  EF34  F000         	goto	l939
   531  000018                     l917:
   532                           
   533                           ;source_headers/main.c: 58:             LATJ = 63;
   534  000018  0E3F               	movlw	63
   535  00001A  6E91               	movwf	145,c	;volatile
   536                           
   537                           ;source_headers/main.c: 59:             break;
   538  00001C  EF6A  F000         	goto	l108
   539  000020                     l919:
   540                           
   541                           ;source_headers/main.c: 61:             LATJ = 6;
   542  000020  0E06               	movlw	6
   543  000022  6E91               	movwf	145,c	;volatile
   544                           
   545                           ;source_headers/main.c: 62:             break;
   546  000024  EF6A  F000         	goto	l108
   547  000028                     l921:
   548                           
   549                           ;source_headers/main.c: 64:             LATJ = 91;
   550  000028  0E5B               	movlw	91
   551  00002A  6E91               	movwf	145,c	;volatile
   552                           
   553                           ;source_headers/main.c: 65:             break;
   554  00002C  EF6A  F000         	goto	l108
   555  000030                     l923:
   556                           
   557                           ;source_headers/main.c: 67:             LATJ = 79;
   558  000030  0E4F               	movlw	79
   559  000032  6E91               	movwf	145,c	;volatile
   560                           
   561                           ;source_headers/main.c: 68:             break;
   562  000034  EF6A  F000         	goto	l108
   563  000038                     l925:
   564                           
   565                           ;source_headers/main.c: 70:             LATJ = 102;
   566  000038  0E66               	movlw	102
   567  00003A  6E91               	movwf	145,c	;volatile
   568                           
   569                           ;source_headers/main.c: 71:             break;
   570  00003C  EF6A  F000         	goto	l108
   571  000040                     l927:
   572                           
   573                           ;source_headers/main.c: 73:             LATJ = 109;
   574  000040  0E6D               	movlw	109
   575  000042  6E91               	movwf	145,c	;volatile
   576                           
   577                           ;source_headers/main.c: 74:             break;
   578  000044  EF6A  F000         	goto	l108
   579  000048                     l929:
   580                           
   581                           ;source_headers/main.c: 76:             LATJ = 125;
   582  000048  0E7D               	movlw	125
   583  00004A  6E91               	movwf	145,c	;volatile
   584                           
   585                           ;source_headers/main.c: 77:             break;
   586  00004C  EF6A  F000         	goto	l108
   587  000050                     l931:
   588                           
   589                           ;source_headers/main.c: 79:             LATJ = 7;
   590  000050  0E07               	movlw	7
   591  000052  6E91               	movwf	145,c	;volatile
   592                           
   593                           ;source_headers/main.c: 80:             break;
   594  000054  EF6A  F000         	goto	l108
   595  000058                     l933:
   596                           
   597                           ;source_headers/main.c: 82:             LATJ = 127;
   598  000058  0E7F               	movlw	127
   599  00005A  6E91               	movwf	145,c	;volatile
   600                           
   601                           ;source_headers/main.c: 83:             break;
   602  00005C  EF6A  F000         	goto	l108
   603  000060                     l935:
   604                           
   605                           ;source_headers/main.c: 85:             LATJ = 111;
   606  000060  0E6F               	movlw	111
   607  000062  6E91               	movwf	145,c	;volatile
   608                           
   609                           ;source_headers/main.c: 86:             break;
   610  000064  EF6A  F000         	goto	l108
   611  000068                     l939:
   612  000068  C00B  F00D         	movff	Update7Segment@value_to_display,??_Update7Segment
   613  00006C  C00C  F00E         	movff	Update7Segment@value_to_display+1,??_Update7Segment+1
   614                           
   615                           ; Switch on 2 bytes has been partitioned into a top level switch of size 1, and 1 sub-sw
      +                          itches
   616                           ; Switch size 1, requested type "simple"
   617                           ; Number of cases is 1, Range of values is 0 to 0
   618                           ; switch strategies available:
   619                           ; Name         Instructions Cycles
   620                           ; simple_byte            4     3 (average)
   621                           ;	Chosen strategy is simple_byte
   622  000070  500E               	movf	(??_Update7Segment+1)^0,w,c
   623  000072  0A00               	xorlw	0	; case 0
   624  000074  B4D8               	btfsc	status,2,c
   625  000076  EF3F  F000         	goto	l983
   626  00007A  EF6A  F000         	goto	l108
   627  00007E                     l983:
   628                           
   629                           ; Switch size 1, requested type "simple"
   630                           ; Number of cases is 10, Range of values is 0 to 9
   631                           ; switch strategies available:
   632                           ; Name         Instructions Cycles
   633                           ; simple_byte           31    16 (average)
   634                           ;	Chosen strategy is simple_byte
   635  00007E  500D               	movf	??_Update7Segment^0,w,c
   636  000080  0A00               	xorlw	0	; case 0
   637  000082  B4D8               	btfsc	status,2,c
   638  000084  EF0C  F000         	goto	l917
   639  000088  0A01               	xorlw	1	; case 1
   640  00008A  B4D8               	btfsc	status,2,c
   641  00008C  EF10  F000         	goto	l919
   642  000090  0A03               	xorlw	3	; case 2
   643  000092  B4D8               	btfsc	status,2,c
   644  000094  EF14  F000         	goto	l921
   645  000098  0A01               	xorlw	1	; case 3
   646  00009A  B4D8               	btfsc	status,2,c
   647  00009C  EF18  F000         	goto	l923
   648  0000A0  0A07               	xorlw	7	; case 4
   649  0000A2  B4D8               	btfsc	status,2,c
   650  0000A4  EF1C  F000         	goto	l925
   651  0000A8  0A01               	xorlw	1	; case 5
   652  0000AA  B4D8               	btfsc	status,2,c
   653  0000AC  EF20  F000         	goto	l927
   654  0000B0  0A03               	xorlw	3	; case 6
   655  0000B2  B4D8               	btfsc	status,2,c
   656  0000B4  EF24  F000         	goto	l929
   657  0000B8  0A01               	xorlw	1	; case 7
   658  0000BA  B4D8               	btfsc	status,2,c
   659  0000BC  EF28  F000         	goto	l931
   660  0000C0  0A0F               	xorlw	15	; case 8
   661  0000C2  B4D8               	btfsc	status,2,c
   662  0000C4  EF2C  F000         	goto	l933
   663  0000C8  0A01               	xorlw	1	; case 9
   664  0000CA  B4D8               	btfsc	status,2,c
   665  0000CC  EF30  F000         	goto	l935
   666  0000D0  EF6A  F000         	goto	l108
   667  0000D4                     l108:
   668                           
   669                           ;source_headers/main.c: 88:     LATH0 = 0;
   670  0000D4  9090               	bcf	3984,0,c	;volatile
   671  0000D6                     
   672                           ;source_headers/main.c: 89:     latjh_update_complete();
   673  0000D6  EC21  F001         	call	_latjh_update_complete	;wreg free
   674  0000DA  0012               	return		;funcret
   675  0000DC                     __end_of_Update7Segment:
   676                           	callstack 0
   677                           
   678 ;; *************** function _latjh_update_complete *****************
   679 ;; Defined at:
   680 ;;		line 8 in file "source_headers/breakpoints.c"
   681 ;; Parameters:    Size  Location     Type
   682 ;;		None
   683 ;; Auto vars:     Size  Location     Type
   684 ;;		None
   685 ;; Return value:  Size  Location     Type
   686 ;;                  1    wreg      void 
   687 ;; Registers used:
   688 ;;		None
   689 ;; Tracked objects:
   690 ;;		On entry : 0/0
   691 ;;		On exit  : 0/0
   692 ;;		Unchanged: 0/0
   693 ;; Data sizes:     COMRAM   BANK0   BANK1   BANK2   BANK3   BANK4   BANK5   BANK6   BANK7   BANK8   BANK9  BANK10  BANK1
      +1  BANK12  BANK13  BANK14  BANK15
   694 ;;      Params:         0       0       0       0       0       0       0       0       0       0       0       0       
      +0       0       0       0       0
   695 ;;      Locals:         0       0       0       0       0       0       0       0       0       0       0       0       
      +0       0       0       0       0
   696 ;;      Temps:          0       0       0       0       0       0       0       0       0       0       0       0       
      +0       0       0       0       0
   697 ;;      Totals:         0       0       0       0       0       0       0       0       0       0       0       0       
      +0       0       0       0       0
   698 ;;Total ram usage:        0 bytes
   699 ;; Hardware stack levels used:    1
   700 ;; Hardware stack levels required when called:    1
   701 ;; This function calls:
   702 ;;		Nothing
   703 ;; This function is called by:
   704 ;;		_Update7Segment
   705 ;; This function uses a non-reentrant model
   706 ;;
   707                           
   708                           	psect	text5
   709  000242                     __ptext5:
   710                           	callstack 0
   711  000242                     _latjh_update_complete:
   712                           	callstack 28
   713  000242  0012               	return		;funcret
   714  000244                     __end_of_latjh_update_complete:
   715                           	callstack 0
   716                           
   717 ;; *************** function _Restart *****************
   718 ;; Defined at:
   719 ;;		line 138 in file "source_headers/main.c"
   720 ;; Parameters:    Size  Location     Type
   721 ;;		None
   722 ;; Auto vars:     Size  Location     Type
   723 ;;		None
   724 ;; Return value:  Size  Location     Type
   725 ;;                  1    wreg      void 
   726 ;; Registers used:
   727 ;;		None
   728 ;; Tracked objects:
   729 ;;		On entry : 0/0
   730 ;;		On exit  : 0/0
   731 ;;		Unchanged: 0/0
   732 ;; Data sizes:     COMRAM   BANK0   BANK1   BANK2   BANK3   BANK4   BANK5   BANK6   BANK7   BANK8   BANK9  BANK10  BANK1
      +1  BANK12  BANK13  BANK14  BANK15
   733 ;;      Params:         0       0       0       0       0       0       0       0       0       0       0       0       
      +0       0       0       0       0
   734 ;;      Locals:         0       0       0       0       0       0       0       0       0       0       0       0       
      +0       0       0       0       0
   735 ;;      Temps:          0       0       0       0       0       0       0       0       0       0       0       0       
      +0       0       0       0       0
   736 ;;      Totals:         0       0       0       0       0       0       0       0       0       0       0       0       
      +0       0       0       0       0
   737 ;;Total ram usage:        0 bytes
   738 ;; Hardware stack levels used:    1
   739 ;; Hardware stack levels required when called:    1
   740 ;; This function calls:
   741 ;;		Nothing
   742 ;; This function is called by:
   743 ;;		_main
   744 ;; This function uses a non-reentrant model
   745 ;;
   746                           
   747                           	psect	text6
   748  000244                     __ptext6:
   749                           	callstack 0
   750  000244                     _Restart:
   751                           	callstack 29
   752  000244  0012               	return		;funcret
   753  000246                     __end_of_Restart:
   754                           	callstack 0
   755                           
   756 ;; *************** function _Init *****************
   757 ;; Defined at:
   758 ;;		line 33 in file "source_headers/main.c"
   759 ;; Parameters:    Size  Location     Type
   760 ;;		None
   761 ;; Auto vars:     Size  Location     Type
   762 ;;		None
   763 ;; Return value:  Size  Location     Type
   764 ;;                  1    wreg      void 
   765 ;; Registers used:
   766 ;;		wreg, status,2
   767 ;; Tracked objects:
   768 ;;		On entry : 0/0
   769 ;;		On exit  : 0/0
   770 ;;		Unchanged: 0/0
   771 ;; Data sizes:     COMRAM   BANK0   BANK1   BANK2   BANK3   BANK4   BANK5   BANK6   BANK7   BANK8   BANK9  BANK10  BANK1
      +1  BANK12  BANK13  BANK14  BANK15
   772 ;;      Params:         0       0       0       0       0       0       0       0       0       0       0       0       
      +0       0       0       0       0
   773 ;;      Locals:         0       0       0       0       0       0       0       0       0       0       0       0       
      +0       0       0       0       0
   774 ;;      Temps:          0       0       0       0       0       0       0       0       0       0       0       0       
      +0       0       0       0       0
   775 ;;      Totals:         0       0       0       0       0       0       0       0       0       0       0       0       
      +0       0       0       0       0
   776 ;;Total ram usage:        0 bytes
   777 ;; Hardware stack levels used:    1
   778 ;; Hardware stack levels required when called:    1
   779 ;; This function calls:
   780 ;;		Nothing
   781 ;; This function is called by:
   782 ;;		_main
   783 ;; This function uses a non-reentrant model
   784 ;;
   785                           
   786                           	psect	text7
   787  0001E4                     __ptext7:
   788                           	callstack 0
   789  0001E4                     _Init:
   790                           	callstack 29
   791  0001E4                     
   792                           ;source_headers/main.c: 35:     INTCON = 0;
   793  0001E4  0E00               	movlw	0
   794  0001E6  6EF2               	movwf	242,c	;volatile
   795                           
   796                           ;source_headers/main.c: 36:     TMR0 = 0;
   797  0001E8  0E00               	movlw	0
   798  0001EA  6ED7               	movwf	215,c	;volatile
   799  0001EC  0E00               	movlw	0
   800  0001EE  6ED6               	movwf	214,c	;volatile
   801                           
   802                           ;source_headers/main.c: 37:     T0CON = 0b11010111;
   803  0001F0  0ED7               	movlw	215
   804  0001F2  6ED5               	movwf	213,c	;volatile
   805                           
   806                           ;source_headers/main.c: 38:     TMR0L = 61;
   807  0001F4  0E3D               	movlw	61
   808  0001F6  6ED6               	movwf	214,c	;volatile
   809                           
   810                           ;source_headers/main.c: 40:     timer0_counter = 10;
   811  0001F8  0E00               	movlw	0
   812  0001FA  6E12               	movwf	(_timer0_counter+1)^0,c
   813  0001FC  0E0A               	movlw	10
   814  0001FE  6E11               	movwf	_timer0_counter^0,c
   815                           
   816                           ;source_headers/main.c: 43:     ADCON0 = 0x30;
   817  000200  0E30               	movlw	48
   818  000202  6EC2               	movwf	194,c	;volatile
   819                           
   820                           ;source_headers/main.c: 44:     ADCON1 = 0;
   821  000204  0E00               	movlw	0
   822  000206  6EC1               	movwf	193,c	;volatile
   823                           
   824                           ;source_headers/main.c: 45:     ADCON2 = 0x82;
   825  000208  0E82               	movlw	130
   826  00020A  6EC0               	movwf	192,c	;volatile
   827  00020C                     
   828                           ;source_headers/main.c: 47:     ADON=1;
   829  00020C  80C2               	bsf	4034,0,c	;volatile
   830                           
   831                           ;source_headers/main.c: 49:     INTCON = 0b11100000;
   832  00020E  0EE0               	movlw	224
   833  000210  6EF2               	movwf	242,c	;volatile
   834  000212  0012               	return		;funcret
   835  000214                     __end_of_Init:
   836                           	callstack 0
   837                           
   838 ;; *************** function _EndGame *****************
   839 ;; Defined at:
   840 ;;		line 134 in file "source_headers/main.c"
   841 ;; Parameters:    Size  Location     Type
   842 ;;		None
   843 ;; Auto vars:     Size  Location     Type
   844 ;;		None
   845 ;; Return value:  Size  Location     Type
   846 ;;                  1    wreg      void 
   847 ;; Registers used:
   848 ;;		None
   849 ;; Tracked objects:
   850 ;;		On entry : 0/0
   851 ;;		On exit  : 0/0
   852 ;;		Unchanged: 0/0
   853 ;; Data sizes:     COMRAM   BANK0   BANK1   BANK2   BANK3   BANK4   BANK5   BANK6   BANK7   BANK8   BANK9  BANK10  BANK1
      +1  BANK12  BANK13  BANK14  BANK15
   854 ;;      Params:         0       0       0       0       0       0       0       0       0       0       0       0       
      +0       0       0       0       0
   855 ;;      Locals:         0       0       0       0       0       0       0       0       0       0       0       0       
      +0       0       0       0       0
   856 ;;      Temps:          0       0       0       0       0       0       0       0       0       0       0       0       
      +0       0       0       0       0
   857 ;;      Totals:         0       0       0       0       0       0       0       0       0       0       0       0       
      +0       0       0       0       0
   858 ;;Total ram usage:        0 bytes
   859 ;; Hardware stack levels used:    1
   860 ;; Hardware stack levels required when called:    1
   861 ;; This function calls:
   862 ;;		Nothing
   863 ;; This function is called by:
   864 ;;		_main
   865 ;; This function uses a non-reentrant model
   866 ;;
   867                           
   868                           	psect	text8
   869  000246                     __ptext8:
   870                           	callstack 0
   871  000246                     _EndGame:
   872                           	callstack 29
   873  000246  0012               	return		;funcret
   874  000248                     __end_of_EndGame:
   875                           	callstack 0
   876                           
   877 ;; *************** function _ISR *****************
   878 ;; Defined at:
   879 ;;		line 13 in file "source_headers/main.c"
   880 ;; Parameters:    Size  Location     Type
   881 ;;		None
   882 ;; Auto vars:     Size  Location     Type
   883 ;;		None
   884 ;; Return value:  Size  Location     Type
   885 ;;                  1    wreg      void 
   886 ;; Registers used:
   887 ;;		wreg, status,2, status,0
   888 ;; Tracked objects:
   889 ;;		On entry : 0/0
   890 ;;		On exit  : 0/0
   891 ;;		Unchanged: 0/0
   892 ;; Data sizes:     COMRAM   BANK0   BANK1   BANK2   BANK3   BANK4   BANK5   BANK6   BANK7   BANK8   BANK9  BANK10  BANK1
      +1  BANK12  BANK13  BANK14  BANK15
   893 ;;      Params:         0       0       0       0       0       0       0       0       0       0       0       0       
      +0       0       0       0       0
   894 ;;      Locals:         0       0       0       0       0       0       0       0       0       0       0       0       
      +0       0       0       0       0
   895 ;;      Temps:          0       0       0       0       0       0       0       0       0       0       0       0       
      +0       0       0       0       0
   896 ;;      Totals:         0       0       0       0       0       0       0       0       0       0       0       0       
      +0       0       0       0       0
   897 ;;Total ram usage:        0 bytes
   898 ;; Hardware stack levels used:    1
   899 ;; This function calls:
   900 ;;		Nothing
   901 ;; This function is called by:
   902 ;;		Interrupt level 2
   903 ;; This function uses a non-reentrant model
   904 ;;
   905                           
   906                           	psect	intcode
   907  000008                     __pintcode:
   908                           	callstack 0
   909  000008                     _ISR:
   910                           	callstack 28
   911                           
   912                           ;incstack = 0
   913  000008  8214               	bsf	int$flags,1,c	;set compiler interrupt flag (level 2)
   914  00000A  ED9F  F000         	call	int_func,f	;refresh shadow registers
   915                           
   916                           	psect	intcode_body
   917  00013E                     __pintcode_body:
   918                           	callstack 28
   919  00013E                     int_func:
   920                           	callstack 28
   921  00013E  0006               	pop		; remove dummy address from shadow register refresh
   922  000140                     
   923                           ;source_headers/main.c: 16:     if(ADIF == 1) {
   924  000140  AC9E               	btfss	3998,6,c	;volatile
   925  000142  EFA5  F000         	goto	i2u3_41
   926  000146  EFA7  F000         	goto	i2u3_40
   927  00014A                     i2u3_41:
   928  00014A  EFAC  F000         	goto	i2l879
   929  00014E                     i2u3_40:
   930  00014E                     
   931                           ;source_headers/main.c: 18:         adcon_flag = 1 ;
   932  00014E  0E00               	movlw	0
   933  000150  6E04               	movwf	(_adcon_flag+1)^0,c
   934  000152  0E01               	movlw	1
   935  000154  6E03               	movwf	_adcon_flag^0,c
   936  000156                     
   937                           ;source_headers/main.c: 19:         ADIF = 0 ;
   938  000156  9C9E               	bcf	3998,6,c	;volatile
   939  000158                     i2l879:
   940                           
   941                           ;source_headers/main.c: 21:     if(TMR0IF == 1){
   942  000158  A4F2               	btfss	4082,2,c	;volatile
   943  00015A  EFB1  F000         	goto	i2u4_41
   944  00015E  EFB3  F000         	goto	i2u4_40
   945  000162                     i2u4_41:
   946  000162  EFCA  F000         	goto	i2l100
   947  000166                     i2u4_40:
   948  000166                     
   949                           ;source_headers/main.c: 23:         timer0_counter--;
   950  000166  0611               	decf	_timer0_counter^0,f,c
   951  000168  A0D8               	btfss	status,0,c
   952  00016A  0612               	decf	(_timer0_counter+1)^0,f,c
   953  00016C                     
   954                           ;source_headers/main.c: 24:         if(timer0_counter == 0){
   955  00016C  5011               	movf	_timer0_counter^0,w,c
   956  00016E  1012               	iorwf	(_timer0_counter+1)^0,w,c
   957  000170  A4D8               	btfss	status,2,c
   958  000172  EFBD  F000         	goto	i2u5_41
   959  000176  EFBF  F000         	goto	i2u5_40
   960  00017A                     i2u5_41:
   961  00017A  EFC7  F000         	goto	i2l99
   962  00017E                     i2u5_40:
   963  00017E                     
   964                           ;source_headers/main.c: 25:             timer0_flag = 1;
   965  00017E  0E00               	movlw	0
   966  000180  6E08               	movwf	(_timer0_flag+1)^0,c
   967  000182  0E01               	movlw	1
   968  000184  6E07               	movwf	_timer0_flag^0,c
   969                           
   970                           ;source_headers/main.c: 26:             timer0_counter = 10;
   971  000186  0E00               	movlw	0
   972  000188  6E12               	movwf	(_timer0_counter+1)^0,c
   973  00018A  0E0A               	movlw	10
   974  00018C  6E11               	movwf	_timer0_counter^0,c
   975  00018E                     i2l99:
   976                           
   977                           ;source_headers/main.c: 28:         TMR0L = 61;
   978  00018E  0E3D               	movlw	61
   979  000190  6ED6               	movwf	214,c	;volatile
   980  000192                     
   981                           ;source_headers/main.c: 29:         TMR0IF = 0;
   982  000192  94F2               	bcf	4082,2,c	;volatile
   983  000194                     i2l100:
   984  000194  9214               	bcf	int$flags,1,c	;clear compiler interrupt flag (level 2)
   985  000196  0011               	retfie		f
   986  000198                     __end_of_ISR:
   987                           	callstack 0
   988  0000                     
   989                           	psect	rparam
   990  0000                     
   991                           	psect	temp
   992  000014                     btemp:
   993                           	callstack 0
   994  000014                     	ds	1
   995  0000                     int$flags	set	btemp
   996  0000                     wtemp8	set	btemp+1
   997  0000                     ttemp5	set	btemp+1
   998  0000                     ttemp6	set	btemp+4
   999  0000                     ttemp7	set	btemp+8
  1000                           
  1001                           	psect	idloc
  1002                           
  1003                           ;Config register IDLOC0 @ 0x200000
  1004                           ;	unspecified, using default values
  1005  200000                     	org	2097152
  1006  200000  FF                 	db	255
  1007                           
  1008                           ;Config register IDLOC1 @ 0x200001
  1009                           ;	unspecified, using default values
  1010  200001                     	org	2097153
  1011  200001  FF                 	db	255
  1012                           
  1013                           ;Config register IDLOC2 @ 0x200002
  1014                           ;	unspecified, using default values
  1015  200002                     	org	2097154
  1016  200002  FF                 	db	255
  1017                           
  1018                           ;Config register IDLOC3 @ 0x200003
  1019                           ;	unspecified, using default values
  1020  200003                     	org	2097155
  1021  200003  FF                 	db	255
  1022                           
  1023                           ;Config register IDLOC4 @ 0x200004
  1024                           ;	unspecified, using default values
  1025  200004                     	org	2097156
  1026  200004  FF                 	db	255
  1027                           
  1028                           ;Config register IDLOC5 @ 0x200005
  1029                           ;	unspecified, using default values
  1030  200005                     	org	2097157
  1031  200005  FF                 	db	255
  1032                           
  1033                           ;Config register IDLOC6 @ 0x200006
  1034                           ;	unspecified, using default values
  1035  200006                     	org	2097158
  1036  200006  FF                 	db	255
  1037                           
  1038                           ;Config register IDLOC7 @ 0x200007
  1039                           ;	unspecified, using default values
  1040  200007                     	org	2097159
  1041  200007  FF                 	db	255
  1042                           
  1043                           	psect	config
  1044                           
  1045                           ; Padding undefined space
  1046  300000                     	org	3145728
  1047  300000  FF                 	db	255
  1048                           
  1049                           ;Config register CONFIG1H @ 0x300001
  1050                           ;	Oscillator Selection bits
  1051                           ;	OSC = HSPLL, HS oscillator, PLL enabled (Clock Frequency = 4 x FOSC1)
  1052                           ;	Fail-Safe Clock Monitor Enable bit
  1053                           ;	FCMEN = OFF, Fail-Safe Clock Monitor disabled
  1054                           ;	Internal/External Oscillator Switchover bit
  1055                           ;	IESO = OFF, Two-Speed Start-up disabled
  1056  300001                     	org	3145729
  1057  300001  06                 	db	6
  1058                           
  1059                           ;Config register CONFIG2L @ 0x300002
  1060                           ;	Power-up Timer Enable bit
  1061                           ;	PWRT = OFF, PWRT disabled
  1062                           ;	Brown-out Reset Enable bits
  1063                           ;	BOREN = OFF, Brown-out Reset disabled in hardware and software
  1064                           ;	Brown-out Voltage bits
  1065                           ;	BORV = 0x3, unprogrammed default
  1066  300002                     	org	3145730
  1067  300002  19                 	db	25
  1068                           
  1069                           ;Config register CONFIG2H @ 0x300003
  1070                           ;	Watchdog Timer
  1071                           ;	WDT = OFF, WDT disabled (control is placed on the SWDTEN bit)
  1072                           ;	Watchdog Timer Postscale Select bits
  1073                           ;	WDTPS = 0xF, unprogrammed default
  1074  300003                     	org	3145731
  1075  300003  1E                 	db	30
  1076                           
  1077                           ;Config register CONFIG3L @ 0x300004
  1078                           ;	unspecified, using default values
  1079                           ;	Processor Data Memory Mode Select bits
  1080                           ;	MODE = 0x3, unprogrammed default
  1081                           ;	Address Bus Width Select bits
  1082                           ;	ADDRBW = 0x3, unprogrammed default
  1083                           ;	Data Bus Width Select bit
  1084                           ;	DATABW = 0x1, unprogrammed default
  1085                           ;	External Bus Data Wait Enable bit
  1086                           ;	WAIT = 0x1, unprogrammed default
  1087  300004                     	org	3145732
  1088  300004  F3                 	db	243
  1089                           
  1090                           ;Config register CONFIG3H @ 0x300005
  1091                           ;	CCP2 MUX bit
  1092                           ;	CCP2MX = 0x1, unprogrammed default
  1093                           ;	ECCP MUX bit
  1094                           ;	ECCPMX = 0x1, unprogrammed default
  1095                           ;	Low-Power Timer1 Oscillator Enable bit
  1096                           ;	LPT1OSC = OFF, Timer1 configured for higher power operation
  1097                           ;	MCLR Pin Enable bit
  1098                           ;	MCLRE = ON, MCLR pin enabled; RG5 input pin disabled
  1099  300005                     	org	3145733
  1100  300005  83                 	db	131
  1101                           
  1102                           ;Config register CONFIG4L @ 0x300006
  1103                           ;	Stack Full/Underflow Reset Enable bit
  1104                           ;	STVREN = 0x1, unprogrammed default
  1105                           ;	Single-Supply ICSP Enable bit
  1106                           ;	LVP = OFF, Single-Supply ICSP disabled
  1107                           ;	Boot Block Size Select bits
  1108                           ;	BBSIZ = 0x0, unprogrammed default
  1109                           ;	Extended Instruction Set Enable bit
  1110                           ;	XINST = OFF, Instruction set extension and Indexed Addressing mode disabled (Legacy mo
      +                          de)
  1111                           ;	Background Debugger Enable bit
  1112                           ;	DEBUG = OFF, Background debugger disabled, RB6 and RB7 configured as general purpose I
      +                          /O pins
  1113  300006                     	org	3145734
  1114  300006  81                 	db	129
  1115                           
  1116                           ; Padding undefined space
  1117  300007                     	org	3145735
  1118  300007  FF                 	db	255
  1119                           
  1120                           ;Config register CONFIG5L @ 0x300008
  1121                           ;	unspecified, using default values
  1122                           ;	Code Protection bit Block 0
  1123                           ;	CP0 = 0x1, unprogrammed default
  1124                           ;	Code Protection bit Block 1
  1125                           ;	CP1 = 0x1, unprogrammed default
  1126                           ;	Code Protection bit Block 2
  1127                           ;	CP2 = 0x1, unprogrammed default
  1128                           ;	Code Protection bit Block 3
  1129                           ;	CP3 = 0x1, unprogrammed default
  1130                           ;	Code Protection bit Block 4
  1131                           ;	CP4 = 0x1, unprogrammed default
  1132                           ;	Code Protection bit Block 5
  1133                           ;	CP5 = 0x1, unprogrammed default
  1134                           ;	Code Protection bit Block 6
  1135                           ;	CP6 = 0x1, unprogrammed default
  1136                           ;	Code Protection bit Block 7
  1137                           ;	CP7 = 0x1, unprogrammed default
  1138  300008                     	org	3145736
  1139  300008  FF                 	db	255
  1140                           
  1141                           ;Config register CONFIG5H @ 0x300009
  1142                           ;	unspecified, using default values
  1143                           ;	Boot Block Code Protection bit
  1144                           ;	CPB = 0x1, unprogrammed default
  1145                           ;	Data EEPROM Code Protection bit
  1146                           ;	CPD = 0x1, unprogrammed default
  1147  300009                     	org	3145737
  1148  300009  C0                 	db	192
  1149                           
  1150                           ;Config register CONFIG6L @ 0x30000A
  1151                           ;	unspecified, using default values
  1152                           ;	Write Protection bit Block 0
  1153                           ;	WRT0 = 0x1, unprogrammed default
  1154                           ;	Write Protection bit Block 1
  1155                           ;	WRT1 = 0x1, unprogrammed default
  1156                           ;	Write Protection bit Block 2
  1157                           ;	WRT2 = 0x1, unprogrammed default
  1158                           ;	Write Protection bit Block 3
  1159                           ;	WRT3 = 0x1, unprogrammed default
  1160                           ;	Write Protection bit Block 4
  1161                           ;	WRT4 = 0x1, unprogrammed default
  1162                           ;	Write Protection bit Block 5
  1163                           ;	WRT5 = 0x1, unprogrammed default
  1164                           ;	Write Protection bit Block 6
  1165                           ;	WRT6 = 0x1, unprogrammed default
  1166                           ;	Write Protection bit Block 7
  1167                           ;	WRT7 = 0x1, unprogrammed default
  1168  30000A                     	org	3145738
  1169  30000A  FF                 	db	255
  1170                           
  1171                           ;Config register CONFIG6H @ 0x30000B
  1172                           ;	unspecified, using default values
  1173                           ;	Configuration Register Write Protection bit
  1174                           ;	WRTC = 0x1, unprogrammed default
  1175                           ;	Boot Block Write Protection bit
  1176                           ;	WRTB = 0x1, unprogrammed default
  1177                           ;	Data EEPROM Write Protection bit
  1178                           ;	WRTD = 0x1, unprogrammed default
  1179  30000B                     	org	3145739
  1180  30000B  E0                 	db	224
  1181                           
  1182                           ;Config register CONFIG7L @ 0x30000C
  1183                           ;	unspecified, using default values
  1184                           ;	Table Read Protection bit Block 0
  1185                           ;	EBTR0 = 0x1, unprogrammed default
  1186                           ;	Table Read Protection bit Block 1
  1187                           ;	EBTR1 = 0x1, unprogrammed default
  1188                           ;	Table Read Protection bit Block 2
  1189                           ;	EBTR2 = 0x1, unprogrammed default
  1190                           ;	Table Read Protection bit Block 3
  1191                           ;	EBTR3 = 0x1, unprogrammed default
  1192                           ;	Table Read Protection bit Block 4
  1193                           ;	EBTR4 = 0x1, unprogrammed default
  1194                           ;	Table Read Protection bit Block 5
  1195                           ;	EBTR5 = 0x1, unprogrammed default
  1196                           ;	Table Read Protection bit Block 6
  1197                           ;	EBTR6 = 0x1, unprogrammed default
  1198                           ;	Table Read Protection bit Block 7
  1199                           ;	EBTR7 = 0x1, unprogrammed default
  1200  30000C                     	org	3145740
  1201  30000C  FF                 	db	255
  1202                           
  1203                           ;Config register CONFIG7H @ 0x30000D
  1204                           ;	unspecified, using default values
  1205                           ;	Boot Block Table Read Protection bit
  1206                           ;	EBTRB = 0x1, unprogrammed default
  1207  30000D                     	org	3145741
  1208  30000D  40                 	db	64
  1209                           tosu	equ	0xFFF
  1210                           tosh	equ	0xFFE
  1211                           tosl	equ	0xFFD
  1212                           stkptr	equ	0xFFC
  1213                           pclatu	equ	0xFFB
  1214                           pclath	equ	0xFFA
  1215                           pcl	equ	0xFF9
  1216                           tblptru	equ	0xFF8
  1217                           tblptrh	equ	0xFF7
  1218                           tblptrl	equ	0xFF6
  1219                           tablat	equ	0xFF5
  1220                           prodh	equ	0xFF4
  1221                           prodl	equ	0xFF3
  1222                           indf0	equ	0xFEF
  1223                           postinc0	equ	0xFEE
  1224                           postdec0	equ	0xFED
  1225                           preinc0	equ	0xFEC
  1226                           plusw0	equ	0xFEB
  1227                           fsr0h	equ	0xFEA
  1228                           fsr0l	equ	0xFE9
  1229                           wreg	equ	0xFE8
  1230                           indf1	equ	0xFE7
  1231                           postinc1	equ	0xFE6
  1232                           postdec1	equ	0xFE5
  1233                           preinc1	equ	0xFE4
  1234                           plusw1	equ	0xFE3
  1235                           fsr1h	equ	0xFE2
  1236                           fsr1l	equ	0xFE1
  1237                           bsr	equ	0xFE0
  1238                           indf2	equ	0xFDF
  1239                           postinc2	equ	0xFDE
  1240                           postdec2	equ	0xFDD
  1241                           preinc2	equ	0xFDC
  1242                           plusw2	equ	0xFDB
  1243                           fsr2h	equ	0xFDA
  1244                           fsr2l	equ	0xFD9
  1245                           status	equ	0xFD8

Data Sizes:
    Strings     0
    Constant    0
    Data        1
    BSS         10
    Persistent  2
    Stack       0

Auto Spaces:
    Space          Size  Autos    Used
    COMRAM           94      8      21
    BANK0           160      0       0
    BANK1           256      0       0
    BANK2           256      0       0
    BANK3           256      0       0
    BANK4           256      0       0
    BANK5           256      0       0
    BANK6           256      0       0
    BANK7           256      0       0
    BANK8           256      0       0
    BANK9           256      0       0
    BANK10          256      0       0
    BANK11          256      0       0
    BANK12          256      0       0
    BANK13          256      0       0
    BANK14          256      0       0
    BANK15           96      0       0

Pointer List with Targets:

    None.

Critical Paths under _main in COMRAM

    _main->_Update7Segment

Critical Paths under _ISR in COMRAM

    None.

Critical Paths under _main in BANK0

    None.

Critical Paths under _ISR in BANK0

    None.

Critical Paths under _main in BANK1

    None.

Critical Paths under _ISR in BANK1

    None.

Critical Paths under _main in BANK2

    None.

Critical Paths under _ISR in BANK2

    None.

Critical Paths under _main in BANK3

    None.

Critical Paths under _ISR in BANK3

    None.

Critical Paths under _main in BANK4

    None.

Critical Paths under _ISR in BANK4

    None.

Critical Paths under _main in BANK5

    None.

Critical Paths under _ISR in BANK5

    None.

Critical Paths under _main in BANK6

    None.

Critical Paths under _ISR in BANK6

    None.

Critical Paths under _main in BANK7

    None.

Critical Paths under _ISR in BANK7

    None.

Critical Paths under _main in BANK8

    None.

Critical Paths under _ISR in BANK8

    None.

Critical Paths under _main in BANK9

    None.

Critical Paths under _ISR in BANK9

    None.

Critical Paths under _main in BANK10

    None.

Critical Paths under _ISR in BANK10

    None.

Critical Paths under _main in BANK11

    None.

Critical Paths under _ISR in BANK11

    None.

Critical Paths under _main in BANK12

    None.

Critical Paths under _ISR in BANK12

    None.

Critical Paths under _main in BANK13

    None.

Critical Paths under _ISR in BANK13

    None.

Critical Paths under _main in BANK14

    None.

Critical Paths under _ISR in BANK14

    None.

Critical Paths under _main in BANK15

    None.

Critical Paths under _ISR in BANK15

    None.

Call Graph Tables:

 ---------------------------------------------------------------------------------
 (Depth) Function   	        Calls       Base Space   Used Autos Params    Refs
 ---------------------------------------------------------------------------------
 (0) _main                                                 4     4      0     360
                                              4 COMRAM     4     4      0
                            _EndGame
                               _Init
                            _Restart
                     _Update7Segment
                         _UpdateLeds
                     _special_number
 ---------------------------------------------------------------------------------
 (1) _special_number                                       0     0      0       0
 ---------------------------------------------------------------------------------
 (1) _UpdateLeds                                           2     0      2     196
                                              0 COMRAM     2     0      2
             _latcde_update_complete
 ---------------------------------------------------------------------------------
 (2) _latcde_update_complete                               0     0      0       0
 ---------------------------------------------------------------------------------
 (1) _Update7Segment                                       4     2      2      98
                                              0 COMRAM     4     2      2
              _latjh_update_complete
 ---------------------------------------------------------------------------------
 (2) _latjh_update_complete                                0     0      0       0
 ---------------------------------------------------------------------------------
 (1) _Restart                                              0     0      0       0
 ---------------------------------------------------------------------------------
 (1) _Init                                                 0     0      0       0
 ---------------------------------------------------------------------------------
 (1) _EndGame                                              0     0      0       0
 ---------------------------------------------------------------------------------
 Estimated maximum stack depth 2
 ---------------------------------------------------------------------------------
 (Depth) Function   	        Calls       Base Space   Used Autos Params    Refs
 ---------------------------------------------------------------------------------
 (3) _ISR                                                  0     0      0       0
 ---------------------------------------------------------------------------------
 Estimated maximum stack depth 3
 ---------------------------------------------------------------------------------

 Call Graph Graphs:

 _main (ROOT)
   _EndGame
   _Init
   _Restart
   _Update7Segment
     _latjh_update_complete
   _UpdateLeds
     _latcde_update_complete
   _special_number

 _ISR (ROOT)

 Address spaces:
Name               Size   Autos  Total    Cost      Usage
BIGRAM             F5F      0       0      37        0.0%
EEDATA             400      0       0       0        0.0%
BITBANK14          100      0       0      33        0.0%
BANK14             100      0       0      34        0.0%
BITBANK13          100      0       0      30        0.0%
BANK13             100      0       0      31        0.0%
BITBANK12          100      0       0      28        0.0%
BANK12             100      0       0      29        0.0%
BITBANK11          100      0       0      26        0.0%
BANK11             100      0       0      27        0.0%
BITBANK10          100      0       0      24        0.0%
BANK10             100      0       0      25        0.0%
BITBANK9           100      0       0      22        0.0%
BANK9              100      0       0      23        0.0%
BITBANK8           100      0       0      20        0.0%
BANK8              100      0       0      21        0.0%
BITBANK7           100      0       0      18        0.0%
BANK7              100      0       0      19        0.0%
BITBANK6           100      0       0      16        0.0%
BANK6              100      0       0      17        0.0%
BITBANK5           100      0       0      14        0.0%
BANK5              100      0       0      15        0.0%
BITBANK4           100      0       0      12        0.0%
BANK4              100      0       0      13        0.0%
BITBANK3           100      0       0      10        0.0%
BANK3              100      0       0      11        0.0%
BITBANK2           100      0       0       8        0.0%
BANK2              100      0       0       9        0.0%
BITBANK1           100      0       0       6        0.0%
BANK1              100      0       0       7        0.0%
BITBANK0            A0      0       0       4        0.0%
BANK0               A0      0       0       5        0.0%
BITBANK15           60      0       0      35        0.0%
BANK15              60      0       0      36        0.0%
BITCOMRAM           5E      0       0       0        0.0%
COMRAM              5E      8      15       1       22.3%
BITSFR               0      0       0     200        0.0%
SFR                  0      0       0     200        0.0%
STACK                0      0       0       2        0.0%
NULL                 0      0       0       0        0.0%
ABS                  0      0      15      32        0.0%
DATA                 0      0      15       3        0.0%
CODE                 0      0       0       0        0.0%


Microchip Technology PIC18 Macro Assembler V2.20 build 20200408173844 
Symbol Table                                                                                   Sun May 31 12:19:44 2020

                             l16 0242                               l34 023E  
                             l19 0240                               u80 00EE  
                             u81 00EA                               u90 0114  
                             u91 0110                              l103 0212  
                            l131 0244                              l123 0128  
                            l108 00D4                              l125 013C  
                            l118 00DA                              l128 0246  
                            l823 023C                              l921 0028  
                            l827 01E4                              l931 0050  
                            l923 0030                              l915 0012  
                            l829 020C                              l941 00D6  
                            l933 0058                              l925 0038  
                            l917 0018                              l935 0060  
                            l927 0040                              l919 0020  
                            l951 0102                              l929 0048  
                            l953 0114                              l961 01AE  
                            l939 0068                              l955 0138  
                            l947 00DC                              l949 00EE  
                            l965 01B6                              l957 0198  
                            l983 007E                              l967 01C8  
                            l959 019C                              l969 01D4  
                            u100 01AE                              u101 01AA  
                            u110 01C8                              u111 01C4  
                            _ISR 0008                              wreg 000FE8  
                           ?_ISR 000B                             _ADIF 007CF6  
                           _ADON 007E10                             _LATJ 000F91  
                           i2l99 018E                             _TMR0 000FD6  
              main@current_value 000F                             _Init 01E4  
                           _main 0198                             btemp 0014  
                           start 000E                  __end_of_EndGame 0248  
                   ___param_bank 000000                            ??_ISR 000B  
                __end_of_Restart 0246                            ?_Init 000B  
                          ?_main 000B                            _T0CON 000FD5  
                          _LATC1 007C59                            _LATD0 007C60  
                          _LATC2 007C5A                            _LATD1 007C61  
                          _LATD2 007C62                            _LATD3 007C63  
                          _LATE1 007C69                            _LATE2 007C6A  
                          _LATH0 007C80                            i2l100 0194  
                          i2l881 0166                            i2l873 0140  
                          i2l883 016C                            i2l875 014E  
                          i2l885 017E                            i2l877 0156  
                          i2l887 0192                            i2l879 0158  
                          _TMR0L 000FD6                 ??_special_number 000B  
        ?_latcde_update_complete 000B                            tablat 000FF5  
                          ttemp5 0015                            ttemp6 0018  
                          ttemp7 001C                            status 000FD8  
                          wtemp8 0015                  __initialization 0214  
                   __end_of_Init 0214                     __end_of_main 01E4  
                         ??_Init 000B                           ??_main 000F  
                  __activetblptr 000003   __end_of_latcde_update_complete 0242  
                         _ADCON0 000FC2                           _ADCON1 000FC1  
                         _ADCON2 000FC0                           _INTCON 000FF2  
                      ??_EndGame 000B                           _TMR0IF 007F92  
                         i2u3_40 014E                           i2u3_41 014A  
                         i2u4_40 0166                           i2u4_41 0162  
                         i2u5_40 017E                           i2u5_41 017A  
                      ??_Restart 000B                           clear_0 022C  
                   __pdataCOMRAM 0013                       _UpdateLeds 00DC  
                         tblptrh 000FF7                           tblptrl 000FF6  
                         tblptru 000FF8            _latjh_update_complete 0242  
                     __accesstop 0060          __end_of__initialization 0232  
                  ___rparam_used 000001                   __pcstackCOMRAM 000B  
                     _adcon_flag 0003                       __pnvCOMRAM 0011  
                    ?_UpdateLeds 000B           ?_latjh_update_complete 000B  
        __size_of_Update7Segment 00CA                          _EndGame 0246  
                        __Hparam 0000                          __Lparam 0000  
                        _Restart 0244                          __pcinit 0214  
                        __ramtop 1000                          __ptext0 0198  
                        __ptext1 023C                          __ptext2 00DC  
                        __ptext3 0240                          __ptext4 0012  
                        __ptext5 0242                          __ptext6 0244  
                        __ptext7 01E4                          __ptext8 0246  
                   __size_of_ISR 0190                          _rb_flag 0001  
                        _special 0013                   __pintcode_body 013E  
 Update7Segment@value_to_display 000B             end_of_initialization 0232  
                        int_func 013E              __size_of_UpdateLeds 0062  
              UpdateLeds@down_up 000B                          postinc0 000FEE  
        __size_of_special_number 0004                   _timer0_counter 0011  
                  __pidataCOMRAM 0248              start_initialization 0214  
                    __end_of_ISR 0198                   _Update7Segment 0012  
        ??_latjh_update_complete 000B         ??_latcde_update_complete 000B  
                   ??_UpdateLeds 000D                      __pbssCOMRAM 0001  
         __end_of_Update7Segment 00DC                        _adc_value 0009  
                       ?_EndGame 000B                         ?_Restart 000B  
             __end_of_UpdateLeds 013E                        __pintcode 0008  
                ?_Update7Segment 000B                   _special_number 023C  
__size_of_latcde_update_complete 0002           __end_of_special_number 0240  
               __size_of_EndGame 0002                         __Hrparam 0000  
                       __Lrparam 0000                 __size_of_Restart 0002  
                  __size_of_Init 0030           _latcde_update_complete 0240  
                ?_special_number 000B                    __size_of_main 004C  
                       int$flags 0014   __size_of_latjh_update_complete 0002  
  __end_of_latjh_update_complete 0244                         intlevel2 0000  
                    _timer0_flag 0007                      _timer1_flag 0005  
               ??_Update7Segment 000D  
